###############################################################################
#                                                                             #
# IAR C/C++ Compiler V8.10.3.10338/W32 for 8051         16/Jun/2021  16:55:29 #
# Copyright 2004-2011 IAR Systems AB.                                         #
#                                                                             #
#    Core               =  plain                                              #
#    Code model         =  banked                                             #
#    Data model         =  large                                              #
#    Calling convention =  xdata reentrant                                    #
#    Constant location  =  data_rom                                           #
#    Dptr setup         =  1,16                                               #
#    Source file        =  D:\Desktop\zigbee12\zigbee\Projects\zstack\Samples #
#                          \GenericApp\Source\GenericApp.c                    #
#    Command line       =  -f D:\Desktop\zigbee12\zigbee\Projects\zstack\Samp #
#                          les\GenericApp\CC2530DB\..\..\..\Tools\CC2530DB\f8 #
#                          wEndev.cfg (-DCPU32MHZ -DROOT=__near_func          #
#                          -DBLINK_LEDS) -f D:\Desktop\zigbee12\zigbee\Projec #
#                          ts\zstack\Samples\GenericApp\CC2530DB\..\..\..\Too #
#                          ls\CC2530DB\f8wConfig.cfg (-DSECURE=0              #
#                          -DZG_SECURE_DYNAMIC=0 -DREFLECTOR                  #
#                          -DDEFAULT_CHANLIST=0x00008000                      #
#                          -DZDAPP_CONFIG_PAN_ID=0x1234                       #
#                          -DNWK_START_DELAY=100 -DEXTENDED_JOINING_RANDOM_MA #
#                          SK=0x007F -DBEACON_REQUEST_DELAY=100               #
#                          -DBEACON_REQ_DELAY_MASK=0x00FF                     #
#                          -DROUTE_EXPIRY_TIME=30 -DAPSC_ACK_WAIT_DURATION_PO #
#                          LLED=3000 -DNWK_INDIRECT_MSG_TIMEOUT=7             #
#                          -DMAX_RREQ_ENTRIES=8 -DAPSC_MAX_FRAME_RETRIES=3    #
#                          -DNWK_MAX_DATA_RETRIES=2                           #
#                          -DMAX_POLL_FAILURE_RETRIES=2 -DMAX_BCAST=9         #
#                          -DAPS_MAX_GROUPS=16 -DMAX_RTG_ENTRIES=40           #
#                          -DNWK_MAX_BINDING_ENTRIES=4                        #
#                          -DMAX_BINDING_CLUSTER_IDS=4 "-DDEFAULT_KEY={0x01,  #
#                          0x03, 0x05, 0x07, 0x09, 0x0B, 0x0D, 0x0F, 0x00,    #
#                          0x02, 0x04, 0x06, 0x08, 0x0A, 0x0C, 0x0D}"         #
#                          -DMAC_MAX_FRAME_SIZE=116 "-DCONST=const __code"    #
#                          -DGENERIC=__generic -DRFD_RCVC_ALWAYS_ON=FALSE     #
#                          -DPOLL_RATE=1000 -DQUEUED_POLL_RATE=100            #
#                          -DRESPONSE_POLL_RATE=100) -DREJOIN_POLL_RATE=440   #
#                          D:\Desktop\zigbee12\zigbee\Projects\zstack\Samples #
#                          \GenericApp\Source\GenericApp.c -D ZIGBEEPRO -D    #
#                          NWK_AUTO_POLL -D ZTOOL_P1 -D MT_TASK -D            #
#                          MT_SYS_FUNC -D MT_ZDO_FUNC -D LCD_SUPPORTED=DEBUG  #
#                          -D xPOWER_SAVING -lC D:\Desktop\zigbee12\zigbee\Pr #
#                          ojects\zstack\Samples\GenericApp\CC2530DB\EndDevic #
#                          eEB-Pro\List\ -lA D:\Desktop\zigbee12\zigbee\Proje #
#                          cts\zstack\Samples\GenericApp\CC2530DB\EndDeviceEB #
#                          -Pro\List\ --diag_suppress Pe001,Pa010 -o          #
#                          D:\Desktop\zigbee12\zigbee\Projects\zstack\Samples #
#                          \GenericApp\CC2530DB\EndDeviceEB-Pro\Obj\ -e       #
#                          --debug --core=plain --dptr=16,1                   #
#                          --data_model=large --code_model=banked             #
#                          --calling_convention=xdata_reentrant               #
#                          --place_constants=data_rom --nr_virtual_regs 16    #
#                          -I D:\Desktop\zigbee12\zigbee\Projects\zstack\Samp #
#                          les\GenericApp\CC2530DB\ -I                        #
#                          D:\Desktop\zigbee12\zigbee\Projects\zstack\Samples #
#                          \GenericApp\CC2530DB\..\SOURCE\ -I                 #
#                          D:\Desktop\zigbee12\zigbee\Projects\zstack\Samples #
#                          \GenericApp\CC2530DB\..\..\..\ZMAIN\TI2530DB\ -I   #
#                          D:\Desktop\zigbee12\zigbee\Projects\zstack\Samples #
#                          \GenericApp\CC2530DB\..\..\..\..\..\COMPONENTS\MT\ #
#                           -I D:\Desktop\zigbee12\zigbee\Projects\zstack\Sam #
#                          ples\GenericApp\CC2530DB\..\..\..\..\..\COMPONENTS #
#                          \HAL\INCLUDE\ -I D:\Desktop\zigbee12\zigbee\Projec #
#                          ts\zstack\Samples\GenericApp\CC2530DB\..\..\..\..\ #
#                          ..\COMPONENTS\HAL\TARGET\CC2530EB\ -I              #
#                          D:\Desktop\zigbee12\zigbee\Projects\zstack\Samples #
#                          \GenericApp\CC2530DB\..\..\..\..\..\COMPONENTS\OSA #
#                          L\MCU\CCSOC\ -I D:\Desktop\zigbee12\zigbee\Project #
#                          s\zstack\Samples\GenericApp\CC2530DB\..\..\..\..\. #
#                          .\COMPONENTS\OSAL\INCLUDE\ -I                      #
#                          D:\Desktop\zigbee12\zigbee\Projects\zstack\Samples #
#                          \GenericApp\CC2530DB\..\..\..\..\..\COMPONENTS\STA #
#                          CK\AF\ -I D:\Desktop\zigbee12\zigbee\Projects\zsta #
#                          ck\Samples\GenericApp\CC2530DB\..\..\..\..\..\COMP #
#                          ONENTS\STACK\NWK\ -I D:\Desktop\zigbee12\zigbee\Pr #
#                          ojects\zstack\Samples\GenericApp\CC2530DB\..\..\.. #
#                          \..\..\COMPONENTS\STACK\SEC\ -I                    #
#                          D:\Desktop\zigbee12\zigbee\Projects\zstack\Samples #
#                          \GenericApp\CC2530DB\..\..\..\..\..\COMPONENTS\STA #
#                          CK\SAPI\ -I D:\Desktop\zigbee12\zigbee\Projects\zs #
#                          tack\Samples\GenericApp\CC2530DB\..\..\..\..\..\CO #
#                          MPONENTS\STACK\SYS\ -I D:\Desktop\zigbee12\zigbee\ #
#                          Projects\zstack\Samples\GenericApp\CC2530DB\..\..\ #
#                          ..\..\..\COMPONENTS\STACK\ZDO\ -I                  #
#                          D:\Desktop\zigbee12\zigbee\Projects\zstack\Samples #
#                          \GenericApp\CC2530DB\..\..\..\..\..\COMPONENTS\ZMA #
#                          C\F8W\ -I D:\Desktop\zigbee12\zigbee\Projects\zsta #
#                          ck\Samples\GenericApp\CC2530DB\..\..\..\..\..\COMP #
#                          ONENTS\ZMAC\ -I D:\Desktop\zigbee12\zigbee\Project #
#                          s\zstack\Samples\GenericApp\CC2530DB\..\..\..\..\. #
#                          .\COMPONENTS\SERVICES\SADDR\ -I                    #
#                          D:\Desktop\zigbee12\zigbee\Projects\zstack\Samples #
#                          \GenericApp\CC2530DB\..\..\..\..\..\COMPONENTS\SER #
#                          VICES\SDATA\ -I D:\Desktop\zigbee12\zigbee\Project #
#                          s\zstack\Samples\GenericApp\CC2530DB\..\..\..\..\. #
#                          .\COMPONENTS\MAC\INCLUDE\ -I                       #
#                          D:\Desktop\zigbee12\zigbee\Projects\zstack\Samples #
#                          \GenericApp\CC2530DB\..\..\..\..\..\COMPONENTS\MAC #
#                          \HIGH_LEVEL\ -I D:\Desktop\zigbee12\zigbee\Project #
#                          s\zstack\Samples\GenericApp\CC2530DB\..\..\..\..\. #
#                          .\COMPONENTS\MAC\LOW_LEVEL\srf04\ -I               #
#                          D:\Desktop\zigbee12\zigbee\Projects\zstack\Samples #
#                          \GenericApp\CC2530DB\..\..\..\..\..\COMPONENTS\MAC #
#                          \LOW_LEVEL\srf04\SINGLE_CHIP\ -Ohz                 #
#    List file          =  D:\Desktop\zigbee12\zigbee\Projects\zstack\Samples #
#                          \GenericApp\CC2530DB\EndDeviceEB-Pro\List\GenericA #
#                          pp.lst                                             #
#    Object file        =  D:\Desktop\zigbee12\zigbee\Projects\zstack\Samples #
#                          \GenericApp\CC2530DB\EndDeviceEB-Pro\Obj\GenericAp #
#                          p.r51                                              #
#                                                                             #
#                                                                             #
###############################################################################

D:\Desktop\zigbee12\zigbee\Projects\zstack\Samples\GenericApp\Source\GenericApp.c
      1          /**************************************************************************************************
      2            Filename:       GenericApp.c
      3            Revised:        $Date: 2009-03-18 15:56:27 -0700 (Wed, 18 Mar 2009) $
      4            Revision:       $Revision: 19453 $
      5          
      6            Description:    Generic Application (no Profile).
      7          
      8          
      9            Copyright 2004-2009 Texas Instruments Incorporated. All rights reserved.
     10          
     11            IMPORTANT: Your use of this Software is limited to those specific rights
     12            granted under the terms of a software license agreement between the user
     13            who downloaded the software, his/her employer (which must be your employer)
     14            and Texas Instruments Incorporated (the "License").  You may not use this
     15            Software unless you agree to abide by the terms of the License. The License
     16            limits your use, and you acknowledge, that the Software may not be modified,
     17            copied or distributed unless embedded on a Texas Instruments microcontroller
     18            or used solely and exclusively in conjunction with a Texas Instruments radio
     19            frequency transceiver, which is integrated into your product.  Other than for
     20            the foregoing purpose, you may not use, reproduce, copy, prepare derivative
     21            works of, modify, distribute, perform, display or sell this Software and/or
     22            its documentation for any purpose.
     23          
     24            YOU FURTHER ACKNOWLEDGE AND AGREE THAT THE SOFTWARE AND DOCUMENTATION ARE
     25            PROVIDED AS IS?WITHOUT WARRANTY OF ANY KIND, EITHER EXPRESS OR IMPLIED, 
     26            INCLUDING WITHOUT LIMITATION, ANY WARRANTY OF MERCHANTABILITY, TITLE, 
     27            NON-INFRINGEMENT AND FITNESS FOR A PARTICULAR PURPOSE. IN NO EVENT SHALL
     28            TEXAS INSTRUMENTS OR ITS LICENSORS BE LIABLE OR OBLIGATED UNDER CONTRACT,
     29            NEGLIGENCE, STRICT LIABILITY, CONTRIBUTION, BREACH OF WARRANTY, OR OTHER
     30            LEGAL EQUITABLE THEORY ANY DIRECT OR INDIRECT DAMAGES OR EXPENSES
     31            INCLUDING BUT NOT LIMITED TO ANY INCIDENTAL, SPECIAL, INDIRECT, PUNITIVE
     32            OR CONSEQUENTIAL DAMAGES, LOST PROFITS OR LOST DATA, COST OF PROCUREMENT
     33            OF SUBSTITUTE GOODS, TECHNOLOGY, SERVICES, OR ANY CLAIMS BY THIRD PARTIES
     34            (INCLUDING BUT NOT LIMITED TO ANY DEFENSE THEREOF), OR OTHER SIMILAR COSTS.
     35          
     36            Should you have any questions regarding your right to use this Software,
     37            contact Texas Instruments Incorporated at www.TI.com. 
     38          **************************************************************************************************/
     39          
     40          /*********************************************************************
     41            This application isn't intended to do anything useful, it is
     42            intended to be a simple example of an application's structure.
     43          
     44            This application sends "Hello World" to another "Generic"
     45            application every 15 seconds.  The application will also
     46            receive "Hello World" packets.
     47          
     48            The "Hello World" messages are sent/received as MSG type message.
     49          
     50            This applications doesn't have a profile, so it handles everything
     51            directly - itself.
     52          
     53            Key control:
     54              SW1:
     55              SW2:  initiates end device binding
     56              SW3:
     57              SW4:  initiates a match description request
     58          *********************************************************************/
     59          
     60          /*********************************************************************
     61           * INCLUDES
     62           */
     63          #include "OSAL.h"
     64          #include "AF.h"
     65          #include "ZDApp.h"
     66          #include "ZDObject.h"
     67          #include "ZDProfile.h"
     68          
     69          #include "GenericApp.h"
     70          #include "DebugTrace.h"
     71          
     72          #if !defined( WIN32 )
     73            #include "OnBoard.h"

   \                                 In  segment SFR_AN, at 0x80
   \   union <unnamed> volatile __sfr _A_P0
   \                     _A_P0:
   \   000000                DS 1

   \                                 In  segment SFR_AN, at 0x89
   \   unsigned char volatile __sfr P0IFG
   \                     P0IFG:
   \   000000                DS 1

   \                                 In  segment SFR_AN, at 0x8b
   \   unsigned char volatile __sfr P2IFG
   \                     P2IFG:
   \   000000                DS 1

   \                                 In  segment SFR_AN, at 0x90
   \   union <unnamed> volatile __sfr _A_P1
   \                     _A_P1:
   \   000000                DS 1

   \                                 In  segment SFR_AN, at 0xc0
   \   union <unnamed> volatile __sfr _A_IRCON
   \                     _A_IRCON:
   \   000000                DS 1

   \                                 In  segment SFR_AN, at 0xe8
   \   union <unnamed> volatile __sfr _A_IRCON2
   \                     _A_IRCON2:
   \   000000                DS 1
     74          #endif
     75          
     76          /* HAL */
     77          #include "hal_lcd.h"
     78          #include "hal_led.h"
     79          #include "hal_key.h"
     80          #include "hal_uart.h"
     81          
     82          #include "led_key.h"
     83          #include "string.h"
     84          #include "dht11.h"
     85          #include "stdio.h"
     86          
     87          /*********************************************************************
     88           * MACROS
     89           */
     90          
     91          /*********************************************************************
     92           * CONSTANTS
     93           */
     94          
     95          /*********************************************************************
     96           * TYPEDEFS
     97           */
     98          
     99          /*********************************************************************
    100           * GLOBAL VARIABLES
    101           */
    102          
    103          // This list should be filled with Application specific Cluster IDs.

   \                                 In  segment XDATA_ROM_C, align 1
    104          const cId_t GenericApp_ClusterList[GENERICAPP_MAX_CLUSTERS] =
   \                     GenericApp_ClusterList:
   \   000000   0100         DW 1
    105          {
    106            GENERICAPP_CLUSTERID
    107          };
    108          

   \                                 In  segment XDATA_ROM_C, align 1
    109          const SimpleDescriptionFormat_t GenericApp_SimpleDesc =
   \                     GenericApp_SimpleDesc:
   \   000000   0A           DB 10
   \   000001   040F         DW 3844
   \   000003   0100         DW 1
   \   000005   00           DB 0
   \   000006   01           DB 1
   \   000007   ....         DW GenericApp_ClusterList
   \   000009   01           DB 1
   \   00000A   ....         DW GenericApp_ClusterList
    110          {
    111            GENERICAPP_ENDPOINT,              //  int Endpoint;
    112            GENERICAPP_PROFID,                //  uint16 AppProfId[2];
    113            GENERICAPP_DEVICEID,              //  uint16 AppDeviceId[2];
    114            GENERICAPP_DEVICE_VERSION,        //  int   AppDevVer:4;
    115            GENERICAPP_FLAGS,                 //  int   AppFlags:4;
    116            GENERICAPP_MAX_CLUSTERS,          //  byte  AppNumInClusters;
    117            (cId_t *)GenericApp_ClusterList,  //  byte *pAppInClusterList;
    118            GENERICAPP_MAX_CLUSTERS,          //  byte  AppNumInClusters;
    119            (cId_t *)GenericApp_ClusterList   //  byte *pAppInClusterList;
    120          };
    121          
    122          // This is the Endpoint/Interface description.  It is defined here, but
    123          // filled-in in GenericApp_Init().  Another way to go would be to fill
    124          // in the structure here and make it a "const" (in code space).  The
    125          // way it's defined in this sample app it is define in RAM.

   \                                 In  segment XDATA_Z, align 1, keep-with-next
    126          endPointDesc_t GenericApp_epDesc;//系统以经定义好的端点描述符结构体变量
   \                     GenericApp_epDesc:
   \   000000                DS 6
   \   000006                REQUIRE __INIT_XDATA_Z
    127          
    128          /*********************************************************************
    129           * EXTERNAL VARIABLES
    130           */
    131          
    132          /*********************************************************************
    133           * EXTERNAL FUNCTIONS
    134           */
    135          
    136          /*********************************************************************
    137           * LOCAL VARIABLES
    138           */

   \                                 In  segment XDATA_Z, align 1, keep-with-next
    139          byte GenericApp_TaskID;   // Task ID for internal task/event processing
   \                     GenericApp_TaskID:
   \   000000                DS 1
   \   000001                REQUIRE __INIT_XDATA_Z
    140                                    // This variable will be received when
    141                                    // GenericApp_Init() is called.

   \                                 In  segment XDATA_Z, align 1, keep-with-next
    142          devStates_t GenericApp_NwkState;
   \                     GenericApp_NwkState:
   \   000000                DS 1
   \   000001                REQUIRE __INIT_XDATA_Z
    143          
    144          

   \                                 In  segment XDATA_Z, align 1, keep-with-next
    145          byte GenericApp_TransID;  // This is the unique message ID (counter)
   \                     GenericApp_TransID:
   \   000000                DS 1
   \   000001                REQUIRE __INIT_XDATA_Z
    146          

   \                                 In  segment XDATA_Z, align 1, keep-with-next
    147          afAddrType_t GenericApp_DstAddr;//系统已定义的网络地址结构体变量
   \                     GenericApp_DstAddr:
   \   000000                DS 12
   \   00000C                REQUIRE __INIT_XDATA_Z
    148          
    149          /*********************************************************************
    150           * LOCAL FUNCTIONS
    151           */
    152          void GenericApp_ProcessZDOMsgs( zdoIncomingMsg_t *inMsg );
    153          void GenericApp_HandleKeys( byte shift, byte keys );
    154          void GenericApp_MessageMSGCB( afIncomingMSGPacket_t *pckt );
    155          void GenericApp_SendTheMessage( void );
    156          
    157          /*********************************************************************
    158           * NETWORK LAYER CALLBACKS
    159           */
    160          
    161          /*********************************************************************
    162           * PUBLIC FUNCTIONS
    163           */
    164          
    165          /*********************************************************************
    166           * @fn      GenericApp_Init
    167           *
    168           * @brief   Initialization function for the Generic App Task.
    169           *          This is called during initialization and should contain
    170           *          any application specific initialization (ie. hardware
    171           *          initialization/setup, table initialization, power up
    172           *          notificaiton ... ).
    173           *
    174           * @param   task_id - the ID assigned by OSAL.  This ID should be
    175           *                    used to send messages and set timers.
    176           *
    177           * @return  none
    178           */
    179          
    180          //串口接收数据后会触发这个函数

   \                                 In  segment BANKED_CODE, align 1, keep-with-next
    181          void SerialApp_CallBack(uint8 port, uint8 event)   //接收数据会触发
   \                     SerialApp_CallBack:
    182          {
   \   000000   74F6         MOV     A,#-0xa
   \   000002   12....       LCALL   ?BANKED_ENTER_XDATA
   \   000005                ; Saved register size: 10
   \   000005                ; Auto size: 32
   \   000005   74E0         MOV     A,#-0x20
   \   000007   12....       LCALL   ?ALLOC_XSTACK8
    183              unsigned char buf[32]={0};
   \   00000A   85..82       MOV     DPL,?XSP + 0
   \   00000D   85..83       MOV     DPH,?XSP + 1
   \   000010   AC82         MOV     R4,DPL
   \   000012   AD83         MOV     R5,DPH
   \   000014   7583..       MOV     DPH,#(`?<Constant {0}>` >> 8) & 0xff
   \   000017   7582..       MOV     DPL,#`?<Constant {0}>` & 0xff
   \   00001A   7420         MOV     A,#0x20
   \   00001C   12....       LCALL   ?MOVE_LONG8_XDATA_XDATA
    184              HalUARTRead(HAL_UART_PORT_0,buf,32);
   \   00001F                ; Setup parameters for call to function HalUARTRead
   \   00001F   7C20         MOV     R4,#0x20
   \   000021   FD           MOV     R5,A
   \   000022   85..82       MOV     DPL,?XSP + 0
   \   000025   85..83       MOV     DPH,?XSP + 1
   \   000028   AA82         MOV     R2,DPL
   \   00002A   AB83         MOV     R3,DPH
   \   00002C   F9           MOV     R1,A
   \   00002D   12....       LCALL   ??HalUARTRead?relay
    185              AF_DataRequest( &GenericApp_DstAddr, &GenericApp_epDesc,//网络地址，端点描述符
    186                                 GENERICAPP_CLUSTERID,
    187                                 (byte)osal_strlen( buf ) + 1,
                                                           ^
Warning[Pe167]: argument of type "unsigned char *" is incompatible with
          parameter of type "char *"
    188                                 (byte *)buf,
    189                                 &GenericApp_TransID,
    190                                 AF_DISCV_ROUTE, AF_DEFAULT_RADIUS );
   \   000030                ; Setup parameters for call to function AF_DataRequest
   \   000030   75..1E       MOV     ?V0 + 0,#0x1e
   \   000033   78..         MOV     R0,#?V0 + 0
   \   000035   12....       LCALL   ?PUSH_XSTACK_I_ONE
   \   000038   75....       MOV     ?V0 + 0,#GenericApp_TransID & 0xff
   \   00003B   75....       MOV     ?V0 + 1,#(GenericApp_TransID >> 8) & 0xff
   \   00003E   78..         MOV     R0,#?V0 + 0
   \   000040   12....       LCALL   ?PUSH_XSTACK_I_TWO
   \   000043   7403         MOV     A,#0x3
   \   000045   12....       LCALL   ?XSTACK_DISP0_8
   \   000048   8582..       MOV     ?V0 + 0,DPL
   \   00004B   8583..       MOV     ?V0 + 1,DPH
   \   00004E   78..         MOV     R0,#?V0 + 0
   \   000050   12....       LCALL   ?PUSH_XSTACK_I_TWO
   \   000053                ; Setup parameters for call to function osal_strlen
   \   000053   7405         MOV     A,#0x5
   \   000055   12....       LCALL   ?XSTACK_DISP0_8
   \   000058   12....       LCALL   ?Subroutine2 & 0xFFFF
   \                     ??CrossCallReturnLabel_0:
   \   00005B   12....       LCALL   ?PUSH_XSTACK_I_TWO
   \   00005E   75..01       MOV     ?V0 + 0,#0x1
   \   000061   75..00       MOV     ?V0 + 1,#0x0
   \   000064   78..         MOV     R0,#?V0 + 0
   \   000066   12....       LCALL   ?PUSH_XSTACK_I_TWO
   \   000069   7920         MOV     R1,#0x20
   \   00006B   7C..         MOV     R4,#GenericApp_epDesc & 0xff
   \   00006D   7D..         MOV     R5,#(GenericApp_epDesc >> 8) & 0xff
   \   00006F   7A..         MOV     R2,#GenericApp_DstAddr & 0xff
   \   000071   7B..         MOV     R3,#(GenericApp_DstAddr >> 8) & 0xff
   \   000073   12....       LCALL   ??AF_DataRequest?relay
   \   000076   7409         MOV     A,#0x9
   \   000078   12....       LCALL   ?DEALLOC_XSTACK8
    191          //    if(strcmp((char*)buf,"temperature1") == 0)
    192          //    {
    193                  
    194          //    }
    195          //    else if(strcmp((char*)buf,"humidity1") == 0)
    196          //    {
    197          //        
    198          //    }
    199          
    200          }
   \   00007B   7420         MOV     A,#0x20
   \   00007D   02....       LJMP    ?Subroutine0 & 0xFFFF

   \                                 In  segment BANKED_CODE, align 1, keep-with-next
   \                     ?Subroutine2:
   \   000000   AA82         MOV     R2,DPL
   \   000002   AB83         MOV     R3,DPH
   \   000004   12....       LCALL   ??osal_strlen?relay
   \   000007   EA           MOV     A,R2
   \   000008   2401         ADD     A,#0x1
   \   00000A   F5..         MOV     ?V0 + 0,A
   \   00000C   E4           CLR     A
   \   00000D   3400         ADDC    A,#0x0
   \   00000F   F5..         MOV     ?V0 + 1,A
   \   000011   78..         MOV     R0,#?V0 + 0
   \   000013   22           RET

   \                                 In  segment BANKED_CODE, align 1, keep-with-next
   \                     ?Subroutine0:
   \   000000   12....       LCALL   ?DEALLOC_XSTACK8
   \   000003                REQUIRE ??Subroutine8_0
   \   000003                ; // Fall through to label ??Subroutine8_0

   \                                 In  segment BANKED_CODE, align 1, keep-with-next
   \                     ??Subroutine8_0:
   \   000000   7F02         MOV     R7,#0x2
   \   000002   02....       LJMP    ?BANKED_LEAVE_XDATA
    201          
    202          //串口初始化函数

   \                                 In  segment BANKED_CODE, align 1, keep-with-next
    203          static void InitUart(void)
   \                     InitUart:
    204          {
   \   000000   C082         PUSH    DPL
   \   000002   C083         PUSH    DPH
   \   000004                ; Saved register size: 2
   \   000004                ; Auto size: 29
   \   000004   74E3         MOV     A,#-0x1d
   \   000006   12....       LCALL   ?ALLOC_XSTACK8
    205          	halUARTCfg_t   uartConfig;
    206          	uartConfig.configured           = TRUE;  
   \   000009   85..82       MOV     DPL,?XSP + 0
   \   00000C   85..83       MOV     DPH,?XSP + 1
   \   00000F   7401         MOV     A,#0x1
   \   000011   F0           MOVX    @DPTR,A
    207          	uartConfig.baudRate             = HAL_UART_BR_9600; //设置波特率
   \   000012   12....       LCALL   ?XSTACK_DISP0_8
   \   000015   E4           CLR     A
   \   000016   F0           MOVX    @DPTR,A
    208          	uartConfig.flowControl          = FALSE;
   \   000017   7402         MOV     A,#0x2
   \   000019   12....       LCALL   ?XSTACK_DISP0_8
   \   00001C   E4           CLR     A
   \   00001D   F0           MOVX    @DPTR,A
    209          	uartConfig.flowControlThreshold = 64; 
   \   00001E   7403         MOV     A,#0x3
   \   000020   12....       LCALL   ?XSTACK_DISP0_8
   \   000023   7440         MOV     A,#0x40
   \   000025   F0           MOVX    @DPTR,A
   \   000026   A3           INC     DPTR
   \   000027   E4           CLR     A
   \   000028   F0           MOVX    @DPTR,A
    210          	uartConfig.rx.maxBufSize        = 128;  
   \   000029   740A         MOV     A,#0xa
   \   00002B   12....       LCALL   ?XSTACK_DISP0_8
   \   00002E   7480         MOV     A,#-0x80
   \   000030   F0           MOVX    @DPTR,A
   \   000031   A3           INC     DPTR
   \   000032   E4           CLR     A
   \   000033   F0           MOVX    @DPTR,A
    211          	uartConfig.tx.maxBufSize        = 128;  
   \   000034   7412         MOV     A,#0x12
   \   000036   12....       LCALL   ?XSTACK_DISP0_8
   \   000039   7480         MOV     A,#-0x80
   \   00003B   F0           MOVX    @DPTR,A
   \   00003C   A3           INC     DPTR
   \   00003D   E4           CLR     A
   \   00003E   F0           MOVX    @DPTR,A
    212          	uartConfig.idleTimeout          = 6;    
   \   00003F   7405         MOV     A,#0x5
   \   000041   12....       LCALL   ?XSTACK_DISP0_8
   \   000044   7406         MOV     A,#0x6
   \   000046   F0           MOVX    @DPTR,A
    213          	uartConfig.intEnable            = TRUE;                
   \   000047   7416         MOV     A,#0x16
   \   000049   12....       LCALL   ?XSTACK_DISP0_8
   \   00004C   7401         MOV     A,#0x1
   \   00004E   F0           MOVX    @DPTR,A
    214          	uartConfig.callBackFunc         = SerialApp_CallBack;  //设置回调函数 
   \   00004F   741B         MOV     A,#0x1b
   \   000051   12....       LCALL   ?XSTACK_DISP0_8
   \   000054   74..         MOV     A,#??SerialApp_CallBack?relay & 0xff
   \   000056   F0           MOVX    @DPTR,A
   \   000057   A3           INC     DPTR
   \   000058   74..         MOV     A,#(??SerialApp_CallBack?relay >> 8) & 0xff
   \   00005A   12....       LCALL   ?Subroutine3 & 0xFFFF
    215          	HalUARTOpen (HAL_UART_PORT_0, &uartConfig);   
   \                     ??CrossCallReturnLabel_3:
   \   00005D   AA82         MOV     R2,DPL
   \   00005F   AB83         MOV     R3,DPH
   \   000061   7900         MOV     R1,#0x0
   \   000063   12....       LCALL   ??HalUARTOpen?relay
    216          }
   \   000066   741D         MOV     A,#0x1d
   \   000068   12....       LCALL   ?DEALLOC_XSTACK8
   \   00006B   D083         POP     DPH
   \   00006D   D082         POP     DPL
   \   00006F   02....       LJMP    ?BRET

   \                                 In  segment BANKED_CODE, align 1, keep-with-next
   \                     ?Subroutine3:
   \   000000   F0           MOVX    @DPTR,A
   \   000001                ; Setup parameters for call to function HalUARTOpen
   \   000001   85..82       MOV     DPL,?XSP + 0
   \   000004   85..83       MOV     DPH,?XSP + 1
   \   000007   22           RET
    217          
    218          

   \                                 In  segment BANKED_CODE, align 1, keep-with-next
    219          void GenericApp_Init( byte task_id )
   \                     GenericApp_Init:
    220          {
   \   000000   74F7         MOV     A,#-0x9
   \   000002   12....       LCALL   ?BANKED_ENTER_XDATA
   \   000005                ; Saved register size: 9
   \   000005                ; Auto size: 0
   \   000005   E9           MOV     A,R1
    221            GenericApp_TaskID = task_id;
   \   000006   90....       MOV     DPTR,#GenericApp_TaskID
   \   000009   F0           MOVX    @DPTR,A
    222            GenericApp_NwkState = DEV_INIT;
   \   00000A   90....       MOV     DPTR,#GenericApp_NwkState
   \   00000D   7401         MOV     A,#0x1
   \   00000F   F0           MOVX    @DPTR,A
    223            GenericApp_TransID = 0;
   \   000010   90....       MOV     DPTR,#GenericApp_TransID
   \   000013   E4           CLR     A
   \   000014   F0           MOVX    @DPTR,A
    224          
    225            // Device hardware initialization can be added here or in main() (Zmain.c).
    226            // If the hardware is application specific - add it here.
    227            // If the hardware is other parts of the device add it in main().
    228          
    229            InitUart();//调用串口的初始化函数
   \   000015                ; Setup parameters for call to function InitUart
   \   000015   12....       LCALL   ??InitUart?relay
    230            GenericApp_DstAddr.addrMode = (afAddrMode_t)Addr16Bit;//单播通信模式
   \   000018   90....       MOV     DPTR,#GenericApp_DstAddr + 8
   \   00001B   7402         MOV     A,#0x2
   \   00001D   F0           MOVX    @DPTR,A
    231            GenericApp_DstAddr.endPoint = GENERICAPP_ENDPOINT;//设置端点
   \   00001E   A3           INC     DPTR
   \   00001F   740A         MOV     A,#0xa
   \   000021   F0           MOVX    @DPTR,A
    232            GenericApp_DstAddr.addr.shortAddr = 0;    //协调器的地址就是0
   \   000022   90....       MOV     DPTR,#GenericApp_DstAddr
   \   000025   E4           CLR     A
   \   000026   F0           MOVX    @DPTR,A
   \   000027   A3           INC     DPTR
   \   000028   F0           MOVX    @DPTR,A
    233          
    234            // Fill out the endpoint description.
    235            GenericApp_epDesc.endPoint = GENERICAPP_ENDPOINT;
   \   000029   90....       MOV     DPTR,#GenericApp_epDesc
   \   00002C   740A         MOV     A,#0xa
   \   00002E   F0           MOVX    @DPTR,A
    236            GenericApp_epDesc.task_id = &GenericApp_TaskID;
   \   00002F   A3           INC     DPTR
   \   000030   74..         MOV     A,#GenericApp_TaskID & 0xff
   \   000032   F0           MOVX    @DPTR,A
   \   000033   A3           INC     DPTR
   \   000034   74..         MOV     A,#(GenericApp_TaskID >> 8) & 0xff
   \   000036   F0           MOVX    @DPTR,A
    237            GenericApp_epDesc.simpleDesc
    238                      = (SimpleDescriptionFormat_t *)&GenericApp_SimpleDesc;
   \   000037   A3           INC     DPTR
   \   000038   74..         MOV     A,#GenericApp_SimpleDesc & 0xff
   \   00003A   F0           MOVX    @DPTR,A
   \   00003B   A3           INC     DPTR
   \   00003C   74..         MOV     A,#(GenericApp_SimpleDesc >> 8) & 0xff
   \   00003E   F0           MOVX    @DPTR,A
    239            GenericApp_epDesc.latencyReq = noLatencyReqs;
   \   00003F   A3           INC     DPTR
   \   000040   E4           CLR     A
   \   000041   F0           MOVX    @DPTR,A
    240          
    241            // Register the endpoint description with the AF
    242            afRegister( &GenericApp_epDesc );
   \   000042                ; Setup parameters for call to function afRegister
   \   000042   7A..         MOV     R2,#GenericApp_epDesc & 0xff
   \   000044   7B..         MOV     R3,#(GenericApp_epDesc >> 8) & 0xff
   \   000046   12....       LCALL   ??afRegister?relay
    243          
    244            // Register for all key events - This app will handle all key events
    245            RegisterForKeys( GenericApp_TaskID );
   \   000049                ; Setup parameters for call to function RegisterForKeys
   \   000049   90....       MOV     DPTR,#GenericApp_TaskID
   \   00004C   E0           MOVX    A,@DPTR
   \   00004D   F9           MOV     R1,A
   \   00004E   12....       LCALL   ??RegisterForKeys?relay
    246          
    247            // Update the display
    248          #if defined ( LCD_SUPPORTED )
    249              HalLcdWriteString( "GenericApp", HAL_LCD_LINE_1 );
   \   000051                ; Setup parameters for call to function HalLcdWriteString
   \   000051   7901         MOV     R1,#0x1
   \   000053   7A..         MOV     R2,#`?<Constant "GenericApp">` & 0xff
   \   000055   7B..         MOV     R3,#(`?<Constant "GenericApp">` >> 8) & 0xff
   \   000057   12....       LCALL   ??HalLcdWriteString?relay
    250          #endif
    251              
    252            ZDO_RegisterForZDOMsg( GenericApp_TaskID, End_Device_Bind_rsp );
   \   00005A                ; Setup parameters for call to function ZDO_RegisterForZDOMsg
   \   00005A   7A20         MOV     R2,#0x20
   \   00005C   7B80         MOV     R3,#-0x80
   \   00005E   90....       MOV     DPTR,#GenericApp_TaskID
   \   000061   E0           MOVX    A,@DPTR
   \   000062   F9           MOV     R1,A
   \   000063   12....       LCALL   ??ZDO_RegisterForZDOMsg?relay
    253            ZDO_RegisterForZDOMsg( GenericApp_TaskID, Match_Desc_rsp );
   \   000066                ; Setup parameters for call to function ZDO_RegisterForZDOMsg
   \   000066   7A06         MOV     R2,#0x6
   \   000068   7B80         MOV     R3,#-0x80
   \   00006A   90....       MOV     DPTR,#GenericApp_TaskID
   \   00006D   E0           MOVX    A,@DPTR
   \   00006E   F9           MOV     R1,A
   \   00006F   12....       LCALL   ??ZDO_RegisterForZDOMsg?relay
    254          }
   \   000072   7F01         MOV     R7,#0x1
   \   000074   02....       LJMP    ?BANKED_LEAVE_XDATA
    255          
    256          /*********************************************************************
    257           * @fn      GenericApp_ProcessEvent
    258           *
    259           * @brief   Generic Application Task event processor.  This function
    260           *          is called to process all events for the task.  Events
    261           *          include timers, messages and any other user defined events.
    262           *
    263           * @param   task_id  - The OSAL assigned task ID.
    264           * @param   events - events to process.  This is a bit map and can
    265           *                   contain more than one event.
    266           *
    267           * @return  none
    268           */

   \                                 In  segment BANKED_CODE, align 1, keep-with-next
    269          UINT16 GenericApp_ProcessEvent( byte task_id, UINT16 events )
   \                     GenericApp_ProcessEvent:
    270          {
   \   000000   74F4         MOV     A,#-0xc
   \   000002   12....       LCALL   ?BANKED_ENTER_XDATA
   \   000005                ; Saved register size: 12
   \   000005                ; Auto size: 100
   \   000005   749C         MOV     A,#-0x64
   \   000007   12....       LCALL   ?ALLOC_XSTACK8
   \   00000A   EA           MOV     A,R2
   \   00000B   FE           MOV     R6,A
   \   00000C   EB           MOV     A,R3
   \   00000D   FF           MOV     R7,A
    271            afIncomingMSGPacket_t *MSGpkt;
    272            afDataConfirm_t *afDataConfirm;
    273          
    274            // Data Confirmation message fields
    275            byte sentEP;
    276            ZStatus_t sentStatus;
    277            byte sentTransID;       // This should match the value sent
    278            (void)task_id;  // Intentionally unreferenced parameter
    279          
    280            if ( events & SYS_EVENT_MSG )
   \   00000E   5480         ANL     A,#0x80
   \   000010   7003         JNZ     $+5
   \   000012   02....       LJMP    ??GenericApp_ProcessEvent_0 & 0xFFFF
    281            {
    282              MSGpkt = (afIncomingMSGPacket_t *)osal_msg_receive( GenericApp_TaskID );
   \   000015                ; Setup parameters for call to function osal_msg_receive
   \   000015   805E         SJMP    ??GenericApp_ProcessEvent_1
    283              while ( MSGpkt )
    284              {
    285                switch ( MSGpkt->hdr.event )
    286                {
    287                  case ZDO_CB_MSG:
    288                    GenericApp_ProcessZDOMsgs( (zdoIncomingMsg_t *)MSGpkt );
    289                    break;
    290                    
    291                  case KEY_CHANGE:
    292                    GenericApp_HandleKeys( ((keyChange_t *)MSGpkt)->state, ((keyChange_t *)MSGpkt)->keys );
    293                    break;
    294          
    295                  case AF_DATA_CONFIRM_CMD:
    296                    // This message is received as a confirmation of a data packet sent.
    297                    // The status is of ZStatus_t type [defined in ZComDef.h]
    298                    // The message fields are defined in AF.h
    299                    afDataConfirm = (afDataConfirm_t *)MSGpkt;
    300                    sentEP = afDataConfirm->endpoint;
    301                    sentStatus = afDataConfirm->hdr.status;
    302                    sentTransID = afDataConfirm->transID;
    303                    (void)sentEP;
    304                    (void)sentTransID;
    305          
    306                    // Action taken when confirmation is received.
    307                    if ( sentStatus != ZSuccess )
    308                    {
    309                      // The data wasn't delivered -- Do something
    310                    }
    311                    break;
    312          
    313                  case AF_INCOMING_MSG_CMD:
    314                    GenericApp_MessageMSGCB( MSGpkt );
    315                    break;
    316          
    317                  case ZDO_STATE_CHANGE:
    318                    GenericApp_NwkState = (devStates_t)(MSGpkt->hdr.status);
    319                    if(GenericApp_NwkState == DEV_ZB_COORD)//网络状态变成协调器
    320                    {
    321                      led_ctrl(LED0,LED_ON);
    322                      led_ctrl(LED1,LED_ON);
    323          //              osal_set_event(GenericApp_TaskID,GENERICAPP_MY_EVT1);//立即添加事件
    324          //              osal_start_timerEx(GenericApp_TaskID,GENERICAPP_MY_EVT2,1000);
    325                    }
    326                    else if(GenericApp_NwkState == DEV_ROUTER)//网络状态变成路由器
    327                    {
    328                      led_ctrl(LED0,LED_OFF);
    329                      led_ctrl(LED1,LED_ON);
    330                    }
    331                    else if(GenericApp_NwkState == DEV_END_DEVICE)//网络状态变成终端
   \                     ??GenericApp_ProcessEvent_2:
   \   000017   E0           MOVX    A,@DPTR
   \   000018   6406         XRL     A,#0x6
   \   00001A   7052         JNZ     ??CrossCallReturnLabel_16
    332                    {
    333                      led_ctrl(LED0,LED_ON);
   \   00001C                ; Setup parameters for call to function led_ctrl
   \   00001C   7C00         MOV     R4,#0x0
   \   00001E   7D00         MOV     R5,#0x0
   \   000020   7A00         MOV     R2,#0x0
   \   000022   7B00         MOV     R3,#0x0
   \   000024   12....       LCALL   ??led_ctrl?relay
    334                      led_ctrl(LED1,LED_OFF);
   \   000027                ; Setup parameters for call to function led_ctrl
   \   000027   7C01         MOV     R4,#0x1
   \   000029   7D00         MOV     R5,#0x0
   \   00002B   7A01         MOV     R2,#0x1
   \   00002D   7B00         MOV     R3,#0x0
   \   00002F   12....       LCALL   ??led_ctrl?relay
    335                      unsigned char str[100];
    336                      Start_DHT11();
   \   000032                ; Setup parameters for call to function Start_DHT11
   \   000032   12....       LCALL   ??Start_DHT11?relay
    337                      sprintf(str,"temperature:%d,humidity:%d\r\n",temperature,humidity);
                                     ^
Warning[Pe167]: argument of type "unsigned char *" is incompatible with
          parameter of type "char *"
   \   000035                ; Setup parameters for call to function sprintf
   \   000035   90....       MOV     DPTR,#humidity
   \   000038   E0           MOVX    A,@DPTR
   \   000039   F5..         MOV     ?V0 + 2,A
   \   00003B   75..00       MOV     ?V0 + 3,#0x0
   \   00003E   78..         MOV     R0,#?V0 + 2
   \   000040   12....       LCALL   ?PUSH_XSTACK_I_TWO
   \   000043   90....       MOV     DPTR,#temperature
   \   000046   E0           MOVX    A,@DPTR
   \   000047   F5..         MOV     ?V0 + 2,A
   \   000049   78..         MOV     R0,#?V0 + 2
   \   00004B   12....       LCALL   ?PUSH_XSTACK_I_TWO
   \   00004E   7C..         MOV     R4,#`?<Constant "temperature:%d,humidi...">` & 0xff
   \   000050   7D..         MOV     R5,#(`?<Constant "temperature:%d,humidi...">` >> 8) & 0xff
   \   000052   7404         MOV     A,#0x4
   \   000054   12....       LCALL   ?XSTACK_DISP0_8
   \   000057   AA82         MOV     R2,DPL
   \   000059   AB83         MOV     R3,DPH
   \   00005B   12....       LCALL   ??sprintf?relay
   \   00005E   7404         MOV     A,#0x4
   \   000060   12....       LCALL   ?DEALLOC_XSTACK8
    338                      HalUARTWrite(HAL_UART_PORT_0,str,strlen((char *)str));//发送到终端的串口
   \   000063                ; Setup parameters for call to function HalUARTWrite
   \   000063                ; Setup parameters for call to function strlen
   \   000063   12....       LCALL   ?Subroutine5 & 0xFFFF
   \                     ??CrossCallReturnLabel_14:
   \   000066   7900         MOV     R1,#0x0
   \   000068   12....       LCALL   ??HalUARTWrite?relay
    339                      osal_start_timerEx(GenericApp_TaskID,GENERICAPP_MY_EVT1,2000);
   \   00006B                ; Setup parameters for call to function osal_start_timerEx
   \   00006B   12....       LCALL   ?Subroutine6 & 0xFFFF
    340                    }
    341                    break;
    342          
    343                  default:
    344                    break;
    345                }
    346          
    347                // Release the memory
    348                osal_msg_deallocate( (uint8 *)MSGpkt );
   \                     ??CrossCallReturnLabel_16:
   \   00006E                ; Setup parameters for call to function osal_msg_deallocate
   \   00006E   AA..         MOV     R2,?V0 + 0
   \   000070   AB..         MOV     R3,?V0 + 1
   \   000072   12....       LCALL   ??osal_msg_deallocate?relay
    349          
    350                // Next
    351                MSGpkt = (afIncomingMSGPacket_t *)osal_msg_receive( GenericApp_TaskID );
   \   000075                ; Setup parameters for call to function osal_msg_receive
   \                     ??GenericApp_ProcessEvent_1:
   \   000075   90....       MOV     DPTR,#GenericApp_TaskID
   \   000078   E0           MOVX    A,@DPTR
   \   000079   F9           MOV     R1,A
   \   00007A   12....       LCALL   ??osal_msg_receive?relay
   \   00007D   8A..         MOV     ?V0 + 0,R2
   \   00007F   8B..         MOV     ?V0 + 1,R3
   \   000081   E5..         MOV     A,?V0 + 0
   \   000083   45..         ORL     A,?V0 + 1
   \   000085   606B         JZ      ??GenericApp_ProcessEvent_3
   \   000087   85..82       MOV     DPL,?V0 + 0
   \   00008A   85..83       MOV     DPH,?V0 + 1
   \   00008D   E0           MOVX    A,@DPTR
   \   00008E   24E6         ADD     A,#-0x1a
   \   000090   6029         JZ      ??GenericApp_ProcessEvent_4
   \   000092   245A         ADD     A,#0x5a
   \   000094   6011         JZ      ??GenericApp_ProcessEvent_5
   \   000096   24EF         ADD     A,#-0x11
   \   000098   602A         JZ      ??GenericApp_ProcessEvent_6
   \   00009A   24FE         ADD     A,#-0x2
   \   00009C   70D0         JNZ     ??CrossCallReturnLabel_16
   \   00009E                ; Setup parameters for call to function GenericApp_ProcessZDOMsgs
   \   00009E   AA..         MOV     R2,?V0 + 0
   \   0000A0   AB..         MOV     R3,?V0 + 1
   \   0000A2   12....       LCALL   ??GenericApp_ProcessZDOMsgs?relay
   \   0000A5   80C7         SJMP    ??CrossCallReturnLabel_16
   \                     ??GenericApp_ProcessEvent_5:
   \   0000A7                ; Setup parameters for call to function GenericApp_HandleKeys
   \   0000A7   A3           INC     DPTR
   \   0000A8   A3           INC     DPTR
   \   0000A9   A3           INC     DPTR
   \   0000AA   E0           MOVX    A,@DPTR
   \   0000AB   FA           MOV     R2,A
   \   0000AC   85..82       MOV     DPL,?V0 + 0
   \   0000AF   85..83       MOV     DPH,?V0 + 1
   \   0000B2   A3           INC     DPTR
   \   0000B3   A3           INC     DPTR
   \   0000B4   E0           MOVX    A,@DPTR
   \   0000B5   F9           MOV     R1,A
   \   0000B6   12....       LCALL   ??GenericApp_HandleKeys?relay
   \   0000B9   80B3         SJMP    ??CrossCallReturnLabel_16
   \                     ??GenericApp_ProcessEvent_4:
   \   0000BB                ; Setup parameters for call to function GenericApp_MessageMSGCB
   \   0000BB   AA..         MOV     R2,?V0 + 0
   \   0000BD   AB..         MOV     R3,?V0 + 1
   \   0000BF   12....       LCALL   ??GenericApp_MessageMSGCB?relay
   \   0000C2   80AA         SJMP    ??CrossCallReturnLabel_16
   \                     ??GenericApp_ProcessEvent_6:
   \   0000C4   A3           INC     DPTR
   \   0000C5   E0           MOVX    A,@DPTR
   \   0000C6   90....       MOV     DPTR,#GenericApp_NwkState
   \   0000C9   F0           MOVX    @DPTR,A
   \   0000CA   6409         XRL     A,#0x9
   \   0000CC   7018         JNZ     ??GenericApp_ProcessEvent_7
   \   0000CE                ; Setup parameters for call to function led_ctrl
   \   0000CE   7C00         MOV     R4,#0x0
   \                     ??GenericApp_ProcessEvent_8:
   \   0000D0   7D00         MOV     R5,#0x0
   \   0000D2   7A00         MOV     R2,#0x0
   \   0000D4   7B00         MOV     R3,#0x0
   \   0000D6   12....       LCALL   ??led_ctrl?relay
   \   0000D9                ; Setup parameters for call to function led_ctrl
   \   0000D9   7C00         MOV     R4,#0x0
   \   0000DB   7D00         MOV     R5,#0x0
   \   0000DD   7A01         MOV     R2,#0x1
   \   0000DF   7B00         MOV     R3,#0x0
   \   0000E1   12....       LCALL   ??led_ctrl?relay
   \   0000E4   8088         SJMP    ??CrossCallReturnLabel_16
   \                     ??GenericApp_ProcessEvent_7:
   \   0000E6   E0           MOVX    A,@DPTR
   \   0000E7   6407         XRL     A,#0x7
   \   0000E9   6003         JZ      $+5
   \   0000EB   02....       LJMP    ??GenericApp_ProcessEvent_2 & 0xFFFF
   \   0000EE                ; Setup parameters for call to function led_ctrl
   \   0000EE   7C01         MOV     R4,#0x1
   \   0000F0   80DE         SJMP    ??GenericApp_ProcessEvent_8
    352              }
    353          
    354              // return unprocessed events
    355              return (events ^ SYS_EVENT_MSG);
   \                     ??GenericApp_ProcessEvent_3:
   \   0000F2   EE           MOV     A,R6
   \   0000F3   FA           MOV     R2,A
   \   0000F4   EF           MOV     A,R7
   \   0000F5   6480         XRL     A,#0x80
   \                     ??GenericApp_ProcessEvent_9:
   \   0000F7   FB           MOV     R3,A
   \   0000F8   02....       LJMP    ??GenericApp_ProcessEvent_10 & 0xFFFF
    356            }
    357          
    358            // Send a message out - This event is generated by a timer
    359            //  (setup in GenericApp_Init()).
    360            if ( events & GENERICAPP_SEND_MSG_EVT )
   \                     ??GenericApp_ProcessEvent_0:
   \   0000FB   EE           MOV     A,R6
   \   0000FC   A2E0         MOV     C,0xE0 /* A   */.0
   \   0000FE   5013         JNC     ??GenericApp_ProcessEvent_11
    361            {
    362              // Send "the" message
    363              GenericApp_SendTheMessage();
   \   000100                ; Setup parameters for call to function GenericApp_SendTheMessage
   \   000100   12....       LCALL   ??GenericApp_SendTheMessage?relay
    364          
    365              // Setup to send message again
    366              osal_start_timerEx( GenericApp_TaskID,
    367                                  GENERICAPP_SEND_MSG_EVT,
    368                                GENERICAPP_SEND_MSG_TIMEOUT );
   \   000103                ; Setup parameters for call to function osal_start_timerEx
   \   000103   7C88         MOV     R4,#-0x78
   \   000105   7D13         MOV     R5,#0x13
   \   000107   7A01         MOV     R2,#0x1
   \   000109   12....       LCALL   ??Subroutine7_0 & 0xFFFF
    369          
    370              // return unprocessed events
    371              return (events ^ GENERICAPP_SEND_MSG_EVT);
   \                     ??CrossCallReturnLabel_18:
   \   00010C   EE           MOV     A,R6
   \   00010D   6401         XRL     A,#0x1
   \                     ??GenericApp_ProcessEvent_12:
   \   00010F   FA           MOV     R2,A
   \   000110   EF           MOV     A,R7
   \   000111   80E4         SJMP    ??GenericApp_ProcessEvent_9
    372            }
    373            
    374            if ( events & GENERICAPP_MY_EVT1 )
   \                     ??GenericApp_ProcessEvent_11:
   \   000113   5404         ANL     A,#0x4
   \   000115   7003         JNZ     $+5
   \   000117   02....       LJMP    ??GenericApp_ProcessEvent_13 & 0xFFFF
    375            {//事件要做的事
    376              //P1_0 = !P1_0;
    377              //P1_1 = !P1_1;
    378              unsigned char str[100];
    379              
    380              if(GenericApp_NwkState == DEV_END_DEVICE)//如果网络状态是终端,终端发数据
   \   00011A   90....       MOV     DPTR,#GenericApp_NwkState
   \   00011D   E0           MOVX    A,@DPTR
   \   00011E   6406         XRL     A,#0x6
   \   000120   6003         JZ      $+5
   \   000122   02....       LJMP    ??CrossCallReturnLabel_17 & 0xFFFF
    381              {
    382                if(Start_DHT11() == 1)
   \   000125                ; Setup parameters for call to function Start_DHT11
   \   000125   12....       LCALL   ??Start_DHT11?relay
   \   000128   8A..         MOV     ?V0 + 0,R2
   \   00012A   7401         MOV     A,#0x1
   \   00012C   65..         XRL     A,?V0 + 0
   \   00012E   7001         JNZ     ??GenericApp_ProcessEvent_14
   \   000130   EB           MOV     A,R3
   \                     ??GenericApp_ProcessEvent_14:
   \   000131   6003         JZ      $+5
   \   000133   02....       LJMP    ??GenericApp_ProcessEvent_15 & 0xFFFF
    383                  {
    384                    static char beep_flag=0,huoer_flag=0,R_flag=0,G_flag=0,B_flag=0,warn_flag=0,relay_flag=0;
    385                    //判断一键报警状态
    386                    if(P1_4 == 1)
    387                    {
    388                      warn_flag = 0;
    389                    }
    390                    else
    391                    {
    392                      warn_flag = 1;
   \   000136   A294         MOV     C,0x90.4
   \   000138   4004         JC      ??GenericApp_ProcessEvent_16
   \   00013A   D2F0         SETB    B.0
   \   00013C   8002         SJMP    ??GenericApp_ProcessEvent_17
   \                     ??GenericApp_ProcessEvent_16:
   \   00013E   C2F0         CLR     B.0
   \                     ??GenericApp_ProcessEvent_17:
   \   000140   A2F0         MOV     C,B.0
   \   000142   E4           CLR     A
   \   000143   33           RLC     A
   \   000144   90....       MOV     DPTR,#??warn_flag
   \   000147   F0           MOVX    @DPTR,A
    393                    }
    394                    //超过设定温度蜂鸣器报警
    395                    if(temperature > 28 && warn_flag)
   \   000148   90....       MOV     DPTR,#temperature
   \   00014B   E0           MOVX    A,@DPTR
   \   00014C   941D         SUBB    A,#0x1d
   \   00014E   4011         JC      ??GenericApp_ProcessEvent_18
   \   000150   90....       MOV     DPTR,#??warn_flag
   \   000153   E0           MOVX    A,@DPTR
   \   000154   A2E0         MOV     C,0xE0 /* A   */.0
   \   000156   5009         JNC     ??GenericApp_ProcessEvent_18
    396                    {
    397                        P0_6 = 0;
   \   000158   C286         CLR     0x80.6
    398                        beep_flag=1;
   \   00015A   90....       MOV     DPTR,#??beep_flag
   \   00015D   7401         MOV     A,#0x1
   \   00015F   8006         SJMP    ??GenericApp_ProcessEvent_19
    399                    }
    400                    else
    401                    {
    402                        P0_6 = 1;
   \                     ??GenericApp_ProcessEvent_18:
   \   000161   D286         SETB    0x80.6
    403                        beep_flag=0;
   \   000163   90....       MOV     DPTR,#??beep_flag
   \   000166   E4           CLR     A
   \                     ??GenericApp_ProcessEvent_19:
   \   000167   F0           MOVX    @DPTR,A
    404                    }
    405                    //低于设定湿度，继电器打开
    406                    if(humidity < 50 && warn_flag)
   \   000168   90....       MOV     DPTR,#humidity
   \   00016B   E0           MOVX    A,@DPTR
   \   00016C   C3           CLR     C
   \   00016D   9432         SUBB    A,#0x32
   \   00016F   5011         JNC     ??GenericApp_ProcessEvent_20
   \   000171   90....       MOV     DPTR,#??warn_flag
   \   000174   E0           MOVX    A,@DPTR
   \   000175   A2E0         MOV     C,0xE0 /* A   */.0
   \   000177   5009         JNC     ??GenericApp_ProcessEvent_20
    407                    {
    408                        P0_7 = 0;
   \   000179   C287         CLR     0x80.7
    409                        relay_flag = 1;
   \   00017B   90....       MOV     DPTR,#??relay_flag
   \   00017E   7401         MOV     A,#0x1
   \   000180   8006         SJMP    ??GenericApp_ProcessEvent_21
    410                    }
    411                    else
    412                    {
    413                        P0_7 = 1;
   \                     ??GenericApp_ProcessEvent_20:
   \   000182   D287         SETB    0x80.7
    414                        relay_flag = 0;
   \   000184   90....       MOV     DPTR,#??relay_flag
   \   000187   E4           CLR     A
   \                     ??GenericApp_ProcessEvent_21:
   \   000188   F0           MOVX    @DPTR,A
    415                    }
    416                    //判断霍尔元件状态
    417                    if(P0_5 == 0)
    418                    {
    419                      huoer_flag=1;
   \   000189   A285         MOV     C,0x80.5
   \   00018B   4004         JC      ??GenericApp_ProcessEvent_22
   \   00018D   D2F0         SETB    B.0
   \   00018F   8002         SJMP    ??GenericApp_ProcessEvent_23
   \                     ??GenericApp_ProcessEvent_22:
   \   000191   C2F0         CLR     B.0
   \                     ??GenericApp_ProcessEvent_23:
   \   000193   A2F0         MOV     C,B.0
   \   000195   E4           CLR     A
   \   000196   33           RLC     A
   \   000197   90....       MOV     DPTR,#??huoer_flag
   \   00019A   F0           MOVX    @DPTR,A
    420                    }
    421                    else
    422                    {
    423                      huoer_flag=0;
    424                    }
    425                    //判断R灯状态
    426                    if(P1_2 == 0)
    427                    {
    428                      R_flag = 0;
   \   00019B   A292         MOV     C,0x90.2
   \   00019D   E4           CLR     A
   \   00019E   33           RLC     A
   \   00019F   90....       MOV     DPTR,#??R_flag
   \   0001A2   F0           MOVX    @DPTR,A
    429                    }
    430                    else
    431                    {
    432                      R_flag = 1;
    433                    }
    434                    //判断G灯状态
    435                    if(P1_3 == 0)
    436                    {
    437                      G_flag = 0;
   \   0001A3   A293         MOV     C,0x90.3
   \   0001A5   E4           CLR     A
   \   0001A6   33           RLC     A
   \   0001A7   90....       MOV     DPTR,#??G_flag
   \   0001AA   F0           MOVX    @DPTR,A
    438                    }
    439                    else
    440                    {
    441                      G_flag = 1;
    442                    }
    443                    //判断B灯状态
    444                    if(P1_7 == 0)
    445                    {
    446                      B_flag = 0;
   \   0001AB   A297         MOV     C,0x90.7
   \   0001AD   E4           CLR     A
   \   0001AE   33           RLC     A
   \   0001AF   90....       MOV     DPTR,#??B_flag
   \   0001B2   F0           MOVX    @DPTR,A
    447                    }
    448                    else
    449                    {
    450                      B_flag = 1;
    451                    }
    452                    
    453                    sprintf(str,"{\"temperature\":%d,\"humidity\":%d,\"beep\":%d,\"relay\":%d,\"reverse\":%d,\"led1\":%d,\"led2\":%d,\"led3\":%d,\"warn\":%d}",temperature,humidity,beep_flag,relay_flag,huoer_flag,R_flag,G_flag,B_flag,warn_flag);
                                   ^
Warning[Pe167]: argument of type "unsigned char *" is incompatible with
          parameter of type "char *"
   \   0001B3                ; Setup parameters for call to function sprintf
   \   0001B3   90....       MOV     DPTR,#??warn_flag
   \   0001B6   E0           MOVX    A,@DPTR
   \   0001B7   F5..         MOV     ?V0 + 0,A
   \   0001B9   75..00       MOV     ?V0 + 1,#0x0
   \   0001BC   78..         MOV     R0,#?V0 + 0
   \   0001BE   12....       LCALL   ?PUSH_XSTACK_I_TWO
   \   0001C1   90....       MOV     DPTR,#??B_flag
   \   0001C4   12....       LCALL   ?Subroutine4 & 0xFFFF
   \                     ??CrossCallReturnLabel_6:
   \   0001C7   12....       LCALL   ?PUSH_XSTACK_I_TWO
   \   0001CA   90....       MOV     DPTR,#??G_flag
   \   0001CD   12....       LCALL   ?Subroutine4 & 0xFFFF
   \                     ??CrossCallReturnLabel_7:
   \   0001D0   12....       LCALL   ?PUSH_XSTACK_I_TWO
   \   0001D3   90....       MOV     DPTR,#??R_flag
   \   0001D6   12....       LCALL   ?Subroutine4 & 0xFFFF
   \                     ??CrossCallReturnLabel_8:
   \   0001D9   12....       LCALL   ?PUSH_XSTACK_I_TWO
   \   0001DC   90....       MOV     DPTR,#??huoer_flag
   \   0001DF   12....       LCALL   ?Subroutine4 & 0xFFFF
   \                     ??CrossCallReturnLabel_9:
   \   0001E2   12....       LCALL   ?PUSH_XSTACK_I_TWO
   \   0001E5   90....       MOV     DPTR,#??relay_flag
   \   0001E8   12....       LCALL   ?Subroutine4 & 0xFFFF
   \                     ??CrossCallReturnLabel_10:
   \   0001EB   12....       LCALL   ?PUSH_XSTACK_I_TWO
   \   0001EE   90....       MOV     DPTR,#??beep_flag
   \   0001F1   12....       LCALL   ?Subroutine4 & 0xFFFF
   \                     ??CrossCallReturnLabel_11:
   \   0001F4   12....       LCALL   ?PUSH_XSTACK_I_TWO
   \   0001F7   90....       MOV     DPTR,#humidity
   \   0001FA   12....       LCALL   ?Subroutine4 & 0xFFFF
   \                     ??CrossCallReturnLabel_12:
   \   0001FD   12....       LCALL   ?PUSH_XSTACK_I_TWO
   \   000200   90....       MOV     DPTR,#temperature
   \   000203   12....       LCALL   ?Subroutine4 & 0xFFFF
   \                     ??CrossCallReturnLabel_13:
   \   000206   12....       LCALL   ?PUSH_XSTACK_I_TWO
   \   000209   7C..         MOV     R4,#`?<Constant "{\\"temperature\\":%d,\\"hu...">` & 0xff
   \   00020B   7D..         MOV     R5,#(`?<Constant "{\\"temperature\\":%d,\\"hu...">` >> 8) & 0xff
   \   00020D   7412         MOV     A,#0x12
   \   00020F   12....       LCALL   ?XSTACK_DISP0_8
   \   000212   AA82         MOV     R2,DPL
   \   000214   AB83         MOV     R3,DPH
   \   000216   12....       LCALL   ??sprintf?relay
   \   000219   7412         MOV     A,#0x12
   \   00021B   12....       LCALL   ?DEALLOC_XSTACK8
    454                    HalUARTWrite(HAL_UART_PORT_0,str,strlen((char *)str));//发送到终端的串口
   \   00021E                ; Setup parameters for call to function HalUARTWrite
   \   00021E                ; Setup parameters for call to function strlen
   \   00021E   12....       LCALL   ?Subroutine5 & 0xFFFF
    455                  }
   \                     ??CrossCallReturnLabel_15:
   \   000221   8008         SJMP    ??GenericApp_ProcessEvent_24
    456                  else
    457                  {
    458                      HalUARTWrite(HAL_UART_PORT_0,"error\r\n",strlen("error\r\n"));
   \                     ??GenericApp_ProcessEvent_15:
   \   000223                ; Setup parameters for call to function HalUARTWrite
   \   000223   7C07         MOV     R4,#0x7
   \   000225   7D00         MOV     R5,#0x0
   \   000227   7A..         MOV     R2,#`?<Constant "error\\r\\n">` & 0xff
   \   000229   7B..         MOV     R3,#(`?<Constant "error\\r\\n">` >> 8) & 0xff
   \                     ??GenericApp_ProcessEvent_24:
   \   00022B   7900         MOV     R1,#0x0
   \   00022D   12....       LCALL   ??HalUARTWrite?relay
    459                  }
    460                //发送给协调器
    461                AF_DataRequest( &GenericApp_DstAddr, &GenericApp_epDesc,//网络地址，端点描述符
    462                                 GENERICAPP_CLUSTERID,
    463                                 (byte)osal_strlen( str ) + 1,
                                                           ^
Warning[Pe167]: argument of type "unsigned char *" is incompatible with
          parameter of type "char *"
    464                                 (byte *)str,
    465                                 &GenericApp_TransID,
    466                                 AF_DISCV_ROUTE, AF_DEFAULT_RADIUS );
   \   000230                ; Setup parameters for call to function AF_DataRequest
   \   000230   75..1E       MOV     ?V0 + 0,#0x1e
   \   000233   78..         MOV     R0,#?V0 + 0
   \   000235   12....       LCALL   ?PUSH_XSTACK_I_ONE
   \   000238   75....       MOV     ?V0 + 0,#GenericApp_TransID & 0xff
   \   00023B   75....       MOV     ?V0 + 1,#(GenericApp_TransID >> 8) & 0xff
   \   00023E   78..         MOV     R0,#?V0 + 0
   \   000240   12....       LCALL   ?PUSH_XSTACK_I_TWO
   \   000243   7403         MOV     A,#0x3
   \   000245   12....       LCALL   ?XSTACK_DISP0_8
   \   000248   8582..       MOV     ?V0 + 0,DPL
   \   00024B   8583..       MOV     ?V0 + 1,DPH
   \   00024E   78..         MOV     R0,#?V0 + 0
   \   000250   12....       LCALL   ?PUSH_XSTACK_I_TWO
   \   000253                ; Setup parameters for call to function osal_strlen
   \   000253   7405         MOV     A,#0x5
   \   000255   12....       LCALL   ?XSTACK_DISP0_8
   \   000258   12....       LCALL   ?Subroutine2 & 0xFFFF
   \                     ??CrossCallReturnLabel_1:
   \   00025B   12....       LCALL   ?PUSH_XSTACK_I_TWO
   \   00025E   75..01       MOV     ?V0 + 0,#0x1
   \   000261   75..00       MOV     ?V0 + 1,#0x0
   \   000264   78..         MOV     R0,#?V0 + 0
   \   000266   12....       LCALL   ?PUSH_XSTACK_I_TWO
   \   000269   7920         MOV     R1,#0x20
   \   00026B   7C..         MOV     R4,#GenericApp_epDesc & 0xff
   \   00026D   7D..         MOV     R5,#(GenericApp_epDesc >> 8) & 0xff
   \   00026F   7A..         MOV     R2,#GenericApp_DstAddr & 0xff
   \   000271   7B..         MOV     R3,#(GenericApp_DstAddr >> 8) & 0xff
   \   000273   12....       LCALL   ??AF_DataRequest?relay
   \   000276   7409         MOV     A,#0x9
   \   000278   12....       LCALL   ?DEALLOC_XSTACK8
    467              //HalUARTWrite(HAL_UART_PORT_0,str,strlen((char *)str));   
    468                osal_start_timerEx(GenericApp_TaskID,GENERICAPP_MY_EVT1,2000);
   \   00027B                ; Setup parameters for call to function osal_start_timerEx
   \   00027B   12....       LCALL   ?Subroutine6 & 0xFFFF
    469              }
    470              
    471              return (events ^ GENERICAPP_MY_EVT1);
   \                     ??CrossCallReturnLabel_17:
   \   00027E   EE           MOV     A,R6
   \   00027F   6404         XRL     A,#0x4
   \   000281   02....       LJMP    ??GenericApp_ProcessEvent_12 & 0xFFFF
    472            } 
    473            
    474            if ( events & GENERICAPP_MY_EVT2 )
   \                     ??GenericApp_ProcessEvent_13:
   \   000284   EE           MOV     A,R6
   \   000285   5408         ANL     A,#0x8
   \   000287   6008         JZ      ??GenericApp_ProcessEvent_25
    475            {//事件要做的事
    476              
    477              P0_7 = 0;//继电器打开
   \   000289   C287         CLR     0x80.7
    478              return (events ^ GENERICAPP_MY_EVT2);
   \   00028B   EE           MOV     A,R6
   \   00028C   6408         XRL     A,#0x8
   \   00028E   FA           MOV     R2,A
   \   00028F   8004         SJMP    ??GenericApp_ProcessEvent_10
    479            }
    480          
    481            // Discard unknown events
    482            return 0;
   \                     ??GenericApp_ProcessEvent_25:
   \   000291   7A00         MOV     R2,#0x0
   \   000293   7B00         MOV     R3,#0x0
   \                     ??GenericApp_ProcessEvent_10:
   \   000295   7464         MOV     A,#0x64
   \   000297                REQUIRE ?Subroutine1
   \   000297                REQUIRE _A_P1
   \   000297                REQUIRE _A_P0
   \   000297                ; // Fall through to label ?Subroutine1
    483          }

   \                                 In  segment BANKED_CODE, align 1, keep-with-next
   \                     ?Subroutine1:
   \   000000   12....       LCALL   ?DEALLOC_XSTACK8
   \   000003   7F04         MOV     R7,#0x4
   \   000005   02....       LJMP    ?BANKED_LEAVE_XDATA

   \                                 In  segment BANKED_CODE, align 1, keep-with-next
   \                     ?Subroutine6:
   \   000000   7CD0         MOV     R4,#-0x30
   \   000002   7D07         MOV     R5,#0x7
   \   000004   7A04         MOV     R2,#0x4
   \   000006                REQUIRE ??Subroutine7_0
   \   000006                ; // Fall through to label ??Subroutine7_0

   \                                 In  segment BANKED_CODE, align 1, keep-with-next
   \                     ??Subroutine7_0:
   \   000000   7B00         MOV     R3,#0x0
   \   000002   90....       MOV     DPTR,#GenericApp_TaskID
   \   000005   E0           MOVX    A,@DPTR
   \   000006   F9           MOV     R1,A
   \   000007   12....       LCALL   ??osal_start_timerEx?relay
   \   00000A   22           RET

   \                                 In  segment BANKED_CODE, align 1, keep-with-next
   \                     ?Subroutine5:
   \   000000   85..82       MOV     DPL,?XSP + 0
   \   000003   85..83       MOV     DPH,?XSP + 1
   \   000006   AA82         MOV     R2,DPL
   \   000008   AB83         MOV     R3,DPH
   \   00000A   12....       LCALL   ??strlen?relay
   \   00000D   EA           MOV     A,R2
   \   00000E   FC           MOV     R4,A
   \   00000F   EB           MOV     A,R3
   \   000010   FD           MOV     R5,A
   \   000011   85..82       MOV     DPL,?XSP + 0
   \   000014   85..83       MOV     DPH,?XSP + 1
   \   000017   AA82         MOV     R2,DPL
   \   000019   AB83         MOV     R3,DPH
   \   00001B   22           RET

   \                                 In  segment BANKED_CODE, align 1, keep-with-next
   \                     ?Subroutine4:
   \   000000   E0           MOVX    A,@DPTR
   \   000001   F5..         MOV     ?V0 + 0,A
   \   000003   78..         MOV     R0,#?V0 + 0
   \   000005   22           RET

   \                                 In  segment XDATA_Z, align 1, keep-with-next
   \                     ??beep_flag:
   \   000000                DS 1
   \   000001                REQUIRE __INIT_XDATA_Z

   \                                 In  segment XDATA_Z, align 1, keep-with-next
   \                     ??huoer_flag:
   \   000000                DS 1
   \   000001                REQUIRE __INIT_XDATA_Z

   \                                 In  segment XDATA_Z, align 1, keep-with-next
   \                     ??R_flag:
   \   000000                DS 1
   \   000001                REQUIRE __INIT_XDATA_Z

   \                                 In  segment XDATA_Z, align 1, keep-with-next
   \                     ??G_flag:
   \   000000                DS 1
   \   000001                REQUIRE __INIT_XDATA_Z

   \                                 In  segment XDATA_Z, align 1, keep-with-next
   \                     ??B_flag:
   \   000000                DS 1
   \   000001                REQUIRE __INIT_XDATA_Z

   \                                 In  segment XDATA_Z, align 1, keep-with-next
   \                     ??warn_flag:
   \   000000                DS 1
   \   000001                REQUIRE __INIT_XDATA_Z

   \                                 In  segment XDATA_Z, align 1, keep-with-next
   \                     ??relay_flag:
   \   000000                DS 1
   \   000001                REQUIRE __INIT_XDATA_Z
    484          
    485          /*********************************************************************
    486           * Event Generation Functions
    487           */
    488          
    489          /*********************************************************************
    490           * @fn      GenericApp_ProcessZDOMsgs()
    491           *
    492           * @brief   Process response messages
    493           *
    494           * @param   none
    495           *
    496           * @return  none
    497           */

   \                                 In  segment BANKED_CODE, align 1, keep-with-next
    498          void GenericApp_ProcessZDOMsgs( zdoIncomingMsg_t *inMsg )
   \                     GenericApp_ProcessZDOMsgs:
    499          {
   \   000000   74F6         MOV     A,#-0xa
   \   000002   12....       LCALL   ?BANKED_ENTER_XDATA
   \   000005                ; Saved register size: 10
   \   000005                ; Auto size: 0
    500            switch ( inMsg->clusterID )
   \   000005   EA           MOV     A,R2
   \   000006   240C         ADD     A,#0xc
   \   000008   F582         MOV     DPL,A
   \   00000A   EB           MOV     A,R3
   \   00000B   3400         ADDC    A,#0x0
   \   00000D   F583         MOV     DPH,A
   \   00000F   E0           MOVX    A,@DPTR
   \   000010   F5..         MOV     ?V0 + 0,A
   \   000012   A3           INC     DPTR
   \   000013   E0           MOVX    A,@DPTR
   \   000014   F5..         MOV     ?V0 + 1,A
   \   000016   78..         MOV     R0,#?V0 + 0
   \   000018   12....       LCALL   ?US_SWITCH_SPARSE
   \                     `?<Jumptable for GenericApp_ProcessZDOMsgs>_0`:
   \   00001B   0000         DW        0
   \   00001D   0200         DW        2
   \   00001F   0680         DW        32774
   \   000021   ....         DW        ??GenericApp_ProcessZDOMsgs_0
   \   000023   2080         DW        32800
   \   000025   ....         DW        ??GenericApp_ProcessZDOMsgs_1
   \   000027   ....         DW        ??GenericApp_ProcessZDOMsgs_2
    501            {
    502              case End_Device_Bind_rsp:
    503                if ( ZDO_ParseBindRsp( inMsg ) == ZSuccess )
   \                     ??GenericApp_ProcessZDOMsgs_1:
   \   000029   EA           MOV     A,R2
   \   00002A   2413         ADD     A,#0x13
   \   00002C   F582         MOV     DPL,A
   \   00002E   EB           MOV     A,R3
   \   00002F   3400         ADDC    A,#0x0
   \   000031   F583         MOV     DPH,A
   \   000033   E0           MOVX    A,@DPTR
   \   000034   F8           MOV     R0,A
   \   000035   A3           INC     DPTR
   \   000036   E0           MOVX    A,@DPTR
   \   000037   F583         MOV     DPH,A
   \   000039   8882         MOV     DPL,R0
   \   00003B   E0           MOVX    A,@DPTR
   \   00003C   7009         JNZ     ??GenericApp_ProcessZDOMsgs_3
    504                {
    505                  // Light LED
    506                  HalLedSet( HAL_LED_4, HAL_LED_MODE_ON );
   \   00003E                ; Setup parameters for call to function HalLedSet
   \   00003E   7A01         MOV     R2,#0x1
   \                     ??GenericApp_ProcessZDOMsgs_4:
   \   000040   7908         MOV     R1,#0x8
   \   000042   12....       LCALL   ??HalLedSet?relay
   \   000045   8053         SJMP    ??GenericApp_ProcessZDOMsgs_2
    507                }
    508          #if defined(BLINK_LEDS)
    509                else
    510                {
    511                  // Flash LED to show failure
    512                  HalLedSet ( HAL_LED_4, HAL_LED_MODE_FLASH );
   \                     ??GenericApp_ProcessZDOMsgs_3:
   \   000047                ; Setup parameters for call to function HalLedSet
   \   000047   7A04         MOV     R2,#0x4
   \   000049   80F5         SJMP    ??GenericApp_ProcessZDOMsgs_4
    513                }
    514          #endif
    515                break;
    516          
    517              case Match_Desc_rsp:
    518                {
    519                  ZDO_ActiveEndpointRsp_t *pRsp = ZDO_ParseEPListRsp( inMsg );
   \                     ??GenericApp_ProcessZDOMsgs_0:
   \   00004B                ; Setup parameters for call to function ZDO_ParseEPListRsp
   \   00004B   12....       LCALL   ??ZDO_ParseEPListRsp?relay
   \   00004E   8A..         MOV     ?V0 + 0,R2
   \   000050   8B..         MOV     ?V0 + 1,R3
   \   000052   AE..         MOV     R6,?V0 + 0
   \   000054   AF..         MOV     R7,?V0 + 1
    520                  if ( pRsp )
   \   000056   EE           MOV     A,R6
   \   000057   4F           ORL     A,R7
   \   000058   6040         JZ      ??GenericApp_ProcessZDOMsgs_2
    521                  {
    522                    if ( pRsp->status == ZSuccess && pRsp->cnt )
   \   00005A   8E82         MOV     DPL,R6
   \   00005C   8F83         MOV     DPH,R7
   \   00005E   E0           MOVX    A,@DPTR
   \   00005F   7032         JNZ     ??GenericApp_ProcessZDOMsgs_5
   \   000061   A3           INC     DPTR
   \   000062   A3           INC     DPTR
   \   000063   A3           INC     DPTR
   \   000064   E0           MOVX    A,@DPTR
   \   000065   602C         JZ      ??GenericApp_ProcessZDOMsgs_5
    523                    {
    524                      GenericApp_DstAddr.addrMode = (afAddrMode_t)Addr16Bit;
   \   000067   90....       MOV     DPTR,#GenericApp_DstAddr + 8
   \   00006A   7402         MOV     A,#0x2
   \   00006C   F0           MOVX    @DPTR,A
    525                      GenericApp_DstAddr.addr.shortAddr = pRsp->nwkAddr;
   \   00006D   8E82         MOV     DPL,R6
   \   00006F   8F83         MOV     DPH,R7
   \   000071   A3           INC     DPTR
   \   000072   E0           MOVX    A,@DPTR
   \   000073   F8           MOV     R0,A
   \   000074   A3           INC     DPTR
   \   000075   E0           MOVX    A,@DPTR
   \   000076   F9           MOV     R1,A
   \   000077   90....       MOV     DPTR,#GenericApp_DstAddr
   \   00007A   E8           MOV     A,R0
   \   00007B   F0           MOVX    @DPTR,A
   \   00007C   A3           INC     DPTR
   \   00007D   E9           MOV     A,R1
   \   00007E   F0           MOVX    @DPTR,A
    526                      // Take the first endpoint, Can be changed to search through endpoints
    527                      GenericApp_DstAddr.endPoint = pRsp->epList[0];
   \   00007F   8E82         MOV     DPL,R6
   \   000081   8F83         MOV     DPH,R7
   \   000083   A3           INC     DPTR
   \   000084   A3           INC     DPTR
   \   000085   A3           INC     DPTR
   \   000086   A3           INC     DPTR
   \   000087   E0           MOVX    A,@DPTR
   \   000088   90....       MOV     DPTR,#GenericApp_DstAddr + 9
   \   00008B   F0           MOVX    @DPTR,A
    528          
    529                      // Light LED
    530                      HalLedSet( HAL_LED_4, HAL_LED_MODE_ON );
   \   00008C                ; Setup parameters for call to function HalLedSet
   \   00008C   7A01         MOV     R2,#0x1
   \   00008E   7908         MOV     R1,#0x8
   \   000090   12....       LCALL   ??HalLedSet?relay
    531                    }
    532                    osal_mem_free( pRsp );
   \                     ??GenericApp_ProcessZDOMsgs_5:
   \   000093                ; Setup parameters for call to function osal_mem_free
   \   000093   EE           MOV     A,R6
   \   000094   FA           MOV     R2,A
   \   000095   EF           MOV     A,R7
   \   000096   FB           MOV     R3,A
   \   000097   12....       LCALL   ??osal_mem_free?relay
    533                  }
    534                }
    535                break;
    536            }
    537          }
   \                     ??GenericApp_ProcessZDOMsgs_2:
   \   00009A   80..         SJMP    ??Subroutine8_0
    538          
    539          /*********************************************************************
    540           * @fn      GenericApp_HandleKeys
    541           *
    542           * @brief   Handles all key events for this device.
    543           *
    544           * @param   shift - true if in shift/alt.
    545           * @param   keys - bit field for key events. Valid entries:
    546           *                 HAL_KEY_SW_4
    547           *                 HAL_KEY_SW_3
    548           *                 HAL_KEY_SW_2
    549           *                 HAL_KEY_SW_1
    550           *
    551           * @return  none
    552           */

   \                                 In  segment BANKED_CODE, align 1, keep-with-next
    553          void GenericApp_HandleKeys( byte shift, byte keys )
   \                     GenericApp_HandleKeys:
    554          {
   \   000000   74F4         MOV     A,#-0xc
   \   000002   12....       LCALL   ?BANKED_ENTER_XDATA
   \   000005                ; Saved register size: 12
   \   000005                ; Auto size: 9
   \   000005   74F7         MOV     A,#-0x9
   \   000007   12....       LCALL   ?ALLOC_XSTACK8
   \   00000A   E9           MOV     A,R1
   \   00000B   FE           MOV     R6,A
   \   00000C   EA           MOV     A,R2
   \   00000D   FF           MOV     R7,A
    555            zAddrType_t dstAddr;
    556            
    557            // Shift is used to make each button/switch dual purpose.
    558            if ( shift )
   \   00000E   EE           MOV     A,R6
   \   00000F   6003         JZ      $+5
   \   000011   02....       LJMP    ??GenericApp_HandleKeys_0 & 0xFFFF
    559            {
    560              if ( keys & HAL_KEY_SW_1 )
    561              {
    562              }
    563              if ( keys & HAL_KEY_SW_2 )
    564              {
    565              }
    566              if ( keys & HAL_KEY_SW_3 )
    567              {
    568              }
    569              if ( keys & HAL_KEY_SW_4 )
    570              {
    571              }
    572            }
    573            else
    574            {
    575              if ( keys & HAL_KEY_SW_1 )
    576              {
    577              }
    578          
    579              if ( keys & HAL_KEY_SW_2 )
   \   000014   75....       MOV     ?V0 + 0,#GenericApp_ClusterList & 0xff
   \   000017   75....       MOV     ?V0 + 1,#(GenericApp_ClusterList >> 8) & 0xff
   \   00001A   EF           MOV     A,R7
   \   00001B   A2E1         MOV     C,0xE0 /* A   */.1
   \   00001D   5060         JNC     ??GenericApp_HandleKeys_1
    580              {
    581                HalLedSet ( HAL_LED_4, HAL_LED_MODE_OFF );
   \   00001F                ; Setup parameters for call to function HalLedSet
   \   00001F   7A00         MOV     R2,#0x0
   \   000021   7908         MOV     R1,#0x8
   \   000023   12....       LCALL   ??HalLedSet?relay
    582          
    583                // Initiate an End Device Bind Request for the mandatory endpoint
    584                dstAddr.addrMode = Addr16Bit;
   \   000026   7408         MOV     A,#0x8
   \   000028   12....       LCALL   ?XSTACK_DISP0_8
   \   00002B   7402         MOV     A,#0x2
   \   00002D   12....       LCALL   ?Subroutine3 & 0xFFFF
    585                dstAddr.addr.shortAddr = 0x0000; // Coordinator
   \                     ??CrossCallReturnLabel_4:
   \   000030   E4           CLR     A
   \   000031   F0           MOVX    @DPTR,A
   \   000032   A3           INC     DPTR
   \   000033   F0           MOVX    @DPTR,A
    586                ZDP_EndDeviceBindReq( &dstAddr, NLME_GetShortAddr(), 
    587                                      GenericApp_epDesc.endPoint,
    588                                      GENERICAPP_PROFID,
    589                                      GENERICAPP_MAX_CLUSTERS, (cId_t *)GenericApp_ClusterList,
    590                                      GENERICAPP_MAX_CLUSTERS, (cId_t *)GenericApp_ClusterList,
    591                                      FALSE );
   \   000034                ; Setup parameters for call to function NLME_GetShortAddr
   \   000034   12....       LCALL   ??NLME_GetShortAddr?relay
   \   000037   8A..         MOV     ?V0 + 2,R2
   \   000039   8B..         MOV     ?V0 + 3,R3
   \   00003B   AC..         MOV     R4,?V0 + 2
   \   00003D   AD..         MOV     R5,?V0 + 3
   \   00003F                ; Setup parameters for call to function ZDP_EndDeviceBindReq
   \   00003F   75..00       MOV     ?V0 + 2,#0x0
   \   000042   78..         MOV     R0,#?V0 + 2
   \   000044   12....       LCALL   ?PUSH_XSTACK_I_ONE
   \   000047   78..         MOV     R0,#?V0 + 0
   \   000049   12....       LCALL   ?PUSH_XSTACK_I_TWO
   \   00004C   75..01       MOV     ?V0 + 2,#0x1
   \   00004F   78..         MOV     R0,#?V0 + 2
   \   000051   12....       LCALL   ?PUSH_XSTACK_I_ONE
   \   000054   78..         MOV     R0,#?V0 + 0
   \   000056   12....       LCALL   ?PUSH_XSTACK_I_TWO
   \   000059   78..         MOV     R0,#?V0 + 2
   \   00005B   12....       LCALL   ?PUSH_XSTACK_I_ONE
   \   00005E   75..04       MOV     ?V0 + 2,#0x4
   \   000061   75..0F       MOV     ?V0 + 3,#0xf
   \   000064   78..         MOV     R0,#?V0 + 2
   \   000066   12....       LCALL   ?PUSH_XSTACK_I_TWO
   \   000069   90....       MOV     DPTR,#GenericApp_epDesc
   \   00006C   E0           MOVX    A,@DPTR
   \   00006D   F9           MOV     R1,A
   \   00006E   7409         MOV     A,#0x9
   \   000070   12....       LCALL   ?XSTACK_DISP0_8
   \   000073   AA82         MOV     R2,DPL
   \   000075   AB83         MOV     R3,DPH
   \   000077   12....       LCALL   ??ZDP_EndDeviceBindReq?relay
   \   00007A   7409         MOV     A,#0x9
   \   00007C   12....       LCALL   ?DEALLOC_XSTACK8
    592              }
    593          
    594              if ( keys & HAL_KEY_SW_3 )
    595              {
    596              }
    597          
    598              if ( keys & HAL_KEY_SW_4 )
   \                     ??GenericApp_HandleKeys_1:
   \   00007F   EF           MOV     A,R7
   \   000080   A2E3         MOV     C,0xE0 /* A   */.3
   \   000082   5052         JNC     ??GenericApp_HandleKeys_0
    599              {
    600                HalLedSet ( HAL_LED_4, HAL_LED_MODE_OFF );
   \   000084                ; Setup parameters for call to function HalLedSet
   \   000084   7A00         MOV     R2,#0x0
   \   000086   7908         MOV     R1,#0x8
   \   000088   12....       LCALL   ??HalLedSet?relay
    601                // Initiate a Match Description Request (Service Discovery)
    602                dstAddr.addrMode = AddrBroadcast;
   \   00008B   7408         MOV     A,#0x8
   \   00008D   12....       LCALL   ?XSTACK_DISP0_8
   \   000090   740F         MOV     A,#0xf
   \   000092   12....       LCALL   ?Subroutine3 & 0xFFFF
    603                dstAddr.addr.shortAddr = NWK_BROADCAST_SHORTADDR;
   \                     ??CrossCallReturnLabel_5:
   \   000095   74FF         MOV     A,#-0x1
   \   000097   F0           MOVX    @DPTR,A
   \   000098   A3           INC     DPTR
   \   000099   F0           MOVX    @DPTR,A
    604                ZDP_MatchDescReq( &dstAddr, NWK_BROADCAST_SHORTADDR,
    605                                  GENERICAPP_PROFID,
    606                                  GENERICAPP_MAX_CLUSTERS, (cId_t *)GenericApp_ClusterList,
    607                                  GENERICAPP_MAX_CLUSTERS, (cId_t *)GenericApp_ClusterList,
    608                                  FALSE );
   \   00009A                ; Setup parameters for call to function ZDP_MatchDescReq
   \   00009A   75..00       MOV     ?V0 + 2,#0x0
   \   00009D   78..         MOV     R0,#?V0 + 2
   \   00009F   12....       LCALL   ?PUSH_XSTACK_I_ONE
   \   0000A2   78..         MOV     R0,#?V0 + 0
   \   0000A4   12....       LCALL   ?PUSH_XSTACK_I_TWO
   \   0000A7   75..01       MOV     ?V0 + 2,#0x1
   \   0000AA   78..         MOV     R0,#?V0 + 2
   \   0000AC   12....       LCALL   ?PUSH_XSTACK_I_ONE
   \   0000AF   78..         MOV     R0,#?V0 + 0
   \   0000B1   12....       LCALL   ?PUSH_XSTACK_I_TWO
   \   0000B4   75..04       MOV     ?V0 + 0,#0x4
   \   0000B7   75..0F       MOV     ?V0 + 1,#0xf
   \   0000BA   78..         MOV     R0,#?V0 + 0
   \   0000BC   12....       LCALL   ?PUSH_XSTACK_I_TWO
   \   0000BF   7901         MOV     R1,#0x1
   \   0000C1   7CFF         MOV     R4,#-0x1
   \   0000C3   7DFF         MOV     R5,#-0x1
   \   0000C5   7408         MOV     A,#0x8
   \   0000C7   12....       LCALL   ?XSTACK_DISP0_8
   \   0000CA   AA82         MOV     R2,DPL
   \   0000CC   AB83         MOV     R3,DPH
   \   0000CE   12....       LCALL   ??ZDP_MatchDescReq?relay
   \   0000D1   7408         MOV     A,#0x8
   \   0000D3   12....       LCALL   ?DEALLOC_XSTACK8
    609              }
    610            }
    611          }
   \                     ??GenericApp_HandleKeys_0:
   \   0000D6   7409         MOV     A,#0x9
   \   0000D8   02....       LJMP    ?Subroutine1 & 0xFFFF
    612          
    613          /*********************************************************************
    614           * LOCAL FUNCTIONS
    615           */
    616          
    617          /*********************************************************************
    618           * @fn      GenericApp_MessageMSGCB
    619           *
    620           * @brief   Data message processor callback.  This function processes
    621           *          any incoming data - probably from other devices.  So, based
    622           *          on cluster ID, perform the intended action.
    623           *
    624           * @param   none
    625           *
    626           * @return  none
    627           */
    628          //自组网络收到消息后会调用

   \                                 In  segment BANKED_CODE, align 1, keep-with-next
    629          void GenericApp_MessageMSGCB( afIncomingMSGPacket_t *pkt )//数据消息回调函数
   \                     GenericApp_MessageMSGCB:
    630          {
   \   000000   74F6         MOV     A,#-0xa
   \   000002   12....       LCALL   ?BANKED_ENTER_XDATA
   \   000005                ; Saved register size: 10
   \   000005                ; Auto size: 0
    631            switch ( pkt->clusterId )
   \   000005   8A82         MOV     DPL,R2
   \   000007   8B83         MOV     DPH,R3
   \   000009   A3           INC     DPTR
   \   00000A   A3           INC     DPTR
   \   00000B   A3           INC     DPTR
   \   00000C   A3           INC     DPTR
   \   00000D   E0           MOVX    A,@DPTR
   \   00000E   6401         XRL     A,#0x1
   \   000010   7002         JNZ     ??GenericApp_MessageMSGCB_0
   \   000012   A3           INC     DPTR
   \   000013   E0           MOVX    A,@DPTR
   \                     ??GenericApp_MessageMSGCB_0:
   \   000014   703B         JNZ     ??GenericApp_MessageMSGCB_1
    632            {
    633              case GENERICAPP_CLUSTERID:
    634                  //pkt->cmd.Data  就是接收到的数据的首地址
    635                  if(GenericApp_NwkState == DEV_ZB_COORD)//网络状态是协调器
   \   000016   EA           MOV     A,R2
   \   000017   2421         ADD     A,#0x21
   \   000019   F8           MOV     R0,A
   \   00001A   EB           MOV     A,R3
   \   00001B   3400         ADDC    A,#0x0
   \   00001D   F9           MOV     R1,A
   \   00001E   E8           MOV     A,R0
   \   00001F   FE           MOV     R6,A
   \   000020   E9           MOV     A,R1
   \   000021   FF           MOV     R7,A
   \   000022   90....       MOV     DPTR,#GenericApp_NwkState
   \   000025   E0           MOVX    A,@DPTR
   \   000026   6409         XRL     A,#0x9
   \   000028   6005         JZ      ??GenericApp_MessageMSGCB_2
    636                  {
    637                      HalUARTWrite(HAL_UART_PORT_0,pkt->cmd.Data,strlen((char *)(pkt->cmd.Data)));
   \   00002A                ; Setup parameters for call to function strlen
    638                  }
    639                  else if(GenericApp_NwkState == DEV_END_DEVICE)  //网络状态是终端
   \   00002A   E0           MOVX    A,@DPTR
   \   00002B   6406         XRL     A,#0x6
   \   00002D   7022         JNZ     ??GenericApp_MessageMSGCB_1
    640                  {
    641                      HalUARTWrite(HAL_UART_PORT_0,pkt->cmd.Data,strlen((char *)(pkt->cmd.Data)));
   \   00002F                ; Setup parameters for call to function strlen
   \                     ??GenericApp_MessageMSGCB_2:
   \   00002F   8E82         MOV     DPL,R6
   \   000031   8F83         MOV     DPH,R7
   \   000033   E0           MOVX    A,@DPTR
   \   000034   FA           MOV     R2,A
   \   000035   A3           INC     DPTR
   \   000036   E0           MOVX    A,@DPTR
   \   000037   FB           MOV     R3,A
   \   000038   12....       LCALL   ??strlen?relay
   \   00003B   8A..         MOV     ?V0 + 0,R2
   \   00003D   8B..         MOV     ?V0 + 1,R3
   \   00003F   AC..         MOV     R4,?V0 + 0
   \   000041   AD..         MOV     R5,?V0 + 1
   \   000043                ; Setup parameters for call to function HalUARTWrite
   \   000043   8E82         MOV     DPL,R6
   \   000045   8F83         MOV     DPH,R7
   \   000047   E0           MOVX    A,@DPTR
   \   000048   FA           MOV     R2,A
   \   000049   A3           INC     DPTR
   \   00004A   E0           MOVX    A,@DPTR
   \   00004B   FB           MOV     R3,A
   \   00004C   7900         MOV     R1,#0x0
   \   00004E   12....       LCALL   ??HalUARTWrite?relay
    642                  }
    643                  
    644                  
    645                  break;
    646            }
    647          }
   \                     ??GenericApp_MessageMSGCB_1:
   \   000051   02....       LJMP    ??Subroutine8_0 & 0xFFFF
    648          
    649          /*********************************************************************
    650           * @fn      GenericApp_SendTheMessage
    651           *
    652           * @brief   Send "the" message.
    653           *
    654           * @param   none
    655           *
    656           * @return  none
    657           */

   \                                 In  segment BANKED_CODE, align 1, keep-with-next
    658          void GenericApp_SendTheMessage( void )
   \                     GenericApp_SendTheMessage:
    659          {
   \   000000   74F6         MOV     A,#-0xa
   \   000002   12....       LCALL   ?BANKED_ENTER_XDATA
   \   000005                ; Saved register size: 10
   \   000005                ; Auto size: 12
   \   000005   74F4         MOV     A,#-0xc
   \   000007   12....       LCALL   ?ALLOC_XSTACK8
    660            char theMessageData[] = "Hello World";
   \   00000A   85..82       MOV     DPL,?XSP + 0
   \   00000D   85..83       MOV     DPH,?XSP + 1
   \   000010   AC82         MOV     R4,DPL
   \   000012   AD83         MOV     R5,DPH
   \   000014   7583..       MOV     DPH,#(`?<Constant "Hello World">` >> 8) & 0xff
   \   000017   7582..       MOV     DPL,#`?<Constant "Hello World">` & 0xff
   \   00001A   740C         MOV     A,#0xc
   \   00001C   12....       LCALL   ?MOVE_LONG8_XDATA_XDATA
    661          
    662            if ( AF_DataRequest( &GenericApp_DstAddr, &GenericApp_epDesc,
    663                                 GENERICAPP_CLUSTERID,
    664                                 (byte)osal_strlen( theMessageData ) + 1,
    665                                 (byte *)theMessageData,
    666                                 &GenericApp_TransID,
    667                                 AF_DISCV_ROUTE, AF_DEFAULT_RADIUS ) == afStatus_SUCCESS )
   \   00001F                ; Setup parameters for call to function AF_DataRequest
   \   00001F   75..1E       MOV     ?V0 + 0,#0x1e
   \   000022   78..         MOV     R0,#?V0 + 0
   \   000024   12....       LCALL   ?PUSH_XSTACK_I_ONE
   \   000027   75....       MOV     ?V0 + 0,#GenericApp_TransID & 0xff
   \   00002A   75....       MOV     ?V0 + 1,#(GenericApp_TransID >> 8) & 0xff
   \   00002D   78..         MOV     R0,#?V0 + 0
   \   00002F   12....       LCALL   ?PUSH_XSTACK_I_TWO
   \   000032   7403         MOV     A,#0x3
   \   000034   12....       LCALL   ?XSTACK_DISP0_8
   \   000037   8582..       MOV     ?V0 + 0,DPL
   \   00003A   8583..       MOV     ?V0 + 1,DPH
   \   00003D   78..         MOV     R0,#?V0 + 0
   \   00003F   12....       LCALL   ?PUSH_XSTACK_I_TWO
   \   000042                ; Setup parameters for call to function osal_strlen
   \   000042   7405         MOV     A,#0x5
   \   000044   12....       LCALL   ?XSTACK_DISP0_8
   \   000047   12....       LCALL   ?Subroutine2 & 0xFFFF
   \                     ??CrossCallReturnLabel_2:
   \   00004A   12....       LCALL   ?PUSH_XSTACK_I_TWO
   \   00004D   75..01       MOV     ?V0 + 0,#0x1
   \   000050   75..00       MOV     ?V0 + 1,#0x0
   \   000053   78..         MOV     R0,#?V0 + 0
   \   000055   12....       LCALL   ?PUSH_XSTACK_I_TWO
   \   000058   7920         MOV     R1,#0x20
   \   00005A   7C..         MOV     R4,#GenericApp_epDesc & 0xff
   \   00005C   7D..         MOV     R5,#(GenericApp_epDesc >> 8) & 0xff
   \   00005E   7A..         MOV     R2,#GenericApp_DstAddr & 0xff
   \   000060   7B..         MOV     R3,#(GenericApp_DstAddr >> 8) & 0xff
   \   000062   12....       LCALL   ??AF_DataRequest?relay
   \   000065   7409         MOV     A,#0x9
   \   000067   12....       LCALL   ?DEALLOC_XSTACK8
    668            {
    669              // Successfully requested to be sent.
    670            }
    671            else
    672            {
    673              // Error occurred in request to send.
    674            }
    675          }
   \   00006A   740C         MOV     A,#0xc
   \   00006C   02....       LJMP    ?Subroutine0 & 0xFFFF
    676          
    677          /*********************************************************************
    678          *********************************************************************/
    679          
    680          #pragma optimize=none       //不进行编译优化
    681          #pragma vector=P0INT_VECTOR //P1组引发中断,vector中断矢量表,下面这段代码必须放在这个地方

   \                                 In  segment NEAR_CODE, align 1, keep-with-next
    682          __interrupt void exint_s1(void)//P1组
   \                     exint_s1:
    683          {
   \   000000   C0E0         PUSH    A
   \   000002   74F2         MOV     A,#-0xe
   \   000004   12....       LCALL   ?INTERRUPT_ENTER_XSP
   \   000007                ; Saved register size: 14
   \   000007                ; Auto size: 0
    684                if(P0IFG & 0X02)//0000 0100
   \   000007   E589         MOV     A,0x89
   \   000009   A2E1         MOV     C,0xE0 /* A   */.1
   \   00000B   5011         JNC     ??exint_s1_0
    685                {//确定是P1_2产生了外部中断
    686                    osal_start_timerEx(GenericApp_TaskID,GENERICAPP_MY_EVT2,100);
   \   00000D                ; Setup parameters for call to function osal_start_timerEx
   \   00000D   7C64         MOV     R4,#0x64
   \   00000F   7D00         MOV     R5,#0x0
   \   000011   7A08         MOV     R2,#0x8
   \   000013   7B00         MOV     R3,#0x0
   \   000015   90....       MOV     DPTR,#GenericApp_TaskID
   \   000018   E0           MOVX    A,@DPTR
   \   000019   F9           MOV     R1,A
   \   00001A   12....       LCALL   ??osal_start_timerEx?relay
   \   00001D   E9           MOV     A,R1
    687                }
    688                P0IFG = 0;//把中断状态标志位清0
   \                     ??exint_s1_0:
   \   00001E   758900       MOV     0x89,#0x0
    689                P0IF = 0; //组中断标志位清0
   \   000021   C2C5         CLR     0xc0.5
    690          }
   \   000023   7F01         MOV     R7,#0x1
   \   000025   02....       LJMP    ?INTERRUPT_LEAVE_XSP
   \   000028                REQUIRE P0IFG
   \   000028                REQUIRE _A_IRCON
    691          
    692          
    693          #pragma optimize=none       //不进行编译优化
    694          #pragma vector=P2INT_VECTOR //P1组引发中断,vector中断矢量表,下面这段代码必须放在这个地方

   \                                 In  segment NEAR_CODE, align 1, keep-with-next
    695          __interrupt void exint_s2(void)//P1组
   \                     exint_s2:
    696          {
   \   000000   C0E0         PUSH    A
   \   000002   74F2         MOV     A,#-0xe
   \   000004   12....       LCALL   ?INTERRUPT_ENTER_XSP
   \   000007                ; Saved register size: 14
   \   000007                ; Auto size: 0
    697                if(P2IFG & 0X01)//0000 0100
   \   000007   E58B         MOV     A,0x8b
   \   000009   A2E0         MOV     C,0xE0 /* A   */.0
   \   00000B   5011         JNC     ??exint_s2_0
    698                {//确定是P1_2产生了外部中断
    699                    osal_start_timerEx(GenericApp_TaskID,GENERICAPP_MY_EVT2,10);
   \   00000D                ; Setup parameters for call to function osal_start_timerEx
   \   00000D   7C0A         MOV     R4,#0xa
   \   00000F   7D00         MOV     R5,#0x0
   \   000011   7A08         MOV     R2,#0x8
   \   000013   7B00         MOV     R3,#0x0
   \   000015   90....       MOV     DPTR,#GenericApp_TaskID
   \   000018   E0           MOVX    A,@DPTR
   \   000019   F9           MOV     R1,A
   \   00001A   12....       LCALL   ??osal_start_timerEx?relay
   \   00001D   E9           MOV     A,R1
    700                }
    701                P2IFG = 0;//把中断状态标志位清0
   \                     ??exint_s2_0:
   \   00001E   758B00       MOV     0x8b,#0x0
    702                P2IF = 0; //组中断标志位清0
   \   000021   C2E8         CLR     0xe8.0
    703          }
   \   000023   7F01         MOV     R7,#0x1
   \   000025   02....       LJMP    ?INTERRUPT_LEAVE_XSP
   \   000028                REQUIRE P2IFG
   \   000028                REQUIRE _A_IRCON2

   \                                 In  segment INTVEC, offset 0x33, root
   \                     `??exint_s2??INTVEC 51`:
   \   000033   02....       LJMP       (exint_s2)

   \                                 In  segment INTVEC, offset 0x6b, root
   \                     `??exint_s1??INTVEC 107`:
   \   00006B   02....       LJMP       (exint_s1)

   \                                 In  segment BANK_RELAYS, align 1
   \                     ??SerialApp_CallBack?relay:
   \   000000   12....       LCALL   ?BDISPATCH
   \   000003   ......       DC24    SerialApp_CallBack

   \                                 In  segment BANK_RELAYS, align 1
   \                     ??InitUart?relay:
   \   000000   12....       LCALL   ?BDISPATCH
   \   000003   ......       DC24    InitUart

   \                                 In  segment BANK_RELAYS, align 1
   \                     ??GenericApp_Init?relay:
   \   000000   12....       LCALL   ?BDISPATCH
   \   000003   ......       DC24    GenericApp_Init

   \                                 In  segment BANK_RELAYS, align 1
   \                     ??GenericApp_ProcessEvent?relay:
   \   000000   12....       LCALL   ?BDISPATCH
   \   000003   ......       DC24    GenericApp_ProcessEvent

   \                                 In  segment BANK_RELAYS, align 1
   \                     ??GenericApp_ProcessZDOMsgs?relay:
   \   000000   12....       LCALL   ?BDISPATCH
   \   000003   ......       DC24    GenericApp_ProcessZDOMsgs

   \                                 In  segment BANK_RELAYS, align 1
   \                     ??GenericApp_HandleKeys?relay:
   \   000000   12....       LCALL   ?BDISPATCH
   \   000003   ......       DC24    GenericApp_HandleKeys

   \                                 In  segment BANK_RELAYS, align 1
   \                     ??GenericApp_MessageMSGCB?relay:
   \   000000   12....       LCALL   ?BDISPATCH
   \   000003   ......       DC24    GenericApp_MessageMSGCB

   \                                 In  segment BANK_RELAYS, align 1
   \                     ??GenericApp_SendTheMessage?relay:
   \   000000   12....       LCALL   ?BDISPATCH
   \   000003   ......       DC24    GenericApp_SendTheMessage

   \                                 In  segment XDATA_ROM_C, align 1
   \                     `?<Constant {0}>`:
   \   000000   00           DB 0
   \   000001   00000000     DB 0, 0, 0, 0, 0, 0, 0, 0
   \            00000000
   \   000009   00000000     DB 0, 0, 0, 0, 0, 0, 0, 0
   \            00000000
   \   000011   00000000     DB 0, 0, 0, 0, 0, 0, 0, 0
   \            00000000
   \   000019   00000000     DB 0, 0, 0, 0, 0, 0, 0
   \            000000  

   \                                 In  segment XDATA_ROM_C, align 1
   \                     `?<Constant "GenericApp">`:
   \   000000   47656E65     DB "GenericApp"
   \            72696341
   \            707000  

   \                                 In  segment XDATA_ROM_C, align 1
   \                     `?<Constant "temperature:%d,humidi...">`:
   \   000000   74656D70     DB "temperature:%d,humidity:%d\015\012"
   \            65726174
   \            7572653A
   \            25642C68
   \            756D6964
   \            6974793A
   \            25640D0A
   \            00      

   \                                 In  segment XDATA_ROM_C, align 1
   \                     `?<Constant "{\\"temperature\\":%d,\\"hu...">`:
   \   000000   7B227465     DB 7BH, 22H, 74H, 65H, 6DH, 70H, 65H, 72H
   \            6D706572
   \   000008   61747572     DB 61H, 74H, 75H, 72H, 65H, 22H, 3AH, 25H
   \            65223A25
   \   000010   642C2268     DB 64H, 2CH, 22H, 68H, 75H, 6DH, 69H, 64H
   \            756D6964
   \   000018   69747922     DB 69H, 74H, 79H, 22H, 3AH, 25H, 64H, 2CH
   \            3A25642C
   \   000020   22626565     DB 22H, 62H, 65H, 65H, 70H, 22H, 3AH, 25H
   \            70223A25
   \   000028   642C2272     DB 64H, 2CH, 22H, 72H, 65H, 6CH, 61H, 79H
   \            656C6179
   \   000030   223A2564     DB 22H, 3AH, 25H, 64H, 2CH, 22H, 72H, 65H
   \            2C227265
   \   000038   76657273     DB 76H, 65H, 72H, 73H, 65H, 22H, 3AH, 25H
   \            65223A25
   \   000040   642C226C     DB 64H, 2CH, 22H, 6CH, 65H, 64H, 31H, 22H
   \            65643122
   \   000048   3A25642C     DB 3AH, 25H, 64H, 2CH, 22H, 6CH, 65H, 64H
   \            226C6564
   \   000050   32223A25     DB 32H, 22H, 3AH, 25H, 64H, 2CH, 22H, 6CH
   \            642C226C
   \   000058   65643322     DB 65H, 64H, 33H, 22H, 3AH, 25H, 64H, 2CH
   \            3A25642C
   \   000060   22776172     DB 22H, 77H, 61H, 72H, 6EH, 22H, 3AH, 25H
   \            6E223A25
   \   000068   647D00       DB 64H, 7DH, 0

   \                                 In  segment XDATA_ROM_C, align 1
   \                     `?<Constant "error\\r\\n">`:
   \   000000   6572726F     DB "error\015\012"
   \            720D0A00

   \                                 In  segment XDATA_ROM_C, align 1
   \                     `?<Constant "Hello World">`:
   \   000000   48656C6C     DB "Hello World"
   \            6F20576F
   \            726C6400

   Maximum stack usage in bytes:

     Function                       ISTACK PSTACK XSTACK
     --------                       ------ ------ ------
     GenericApp_HandleKeys              0      0    142
       -> HalLedSet                     0      0     42
       -> NLME_GetShortAddr             0      0     42
       -> ZDP_EndDeviceBindReq          0      0     60
       -> HalLedSet                     0      0     42
       -> ZDP_MatchDescReq              0      0     58
     GenericApp_Init                    0      0      9
       -> InitUart                      0      0     18
       -> afRegister                    0      0     18
       -> RegisterForKeys               0      0     18
       -> HalLcdWriteString             0      0     18
       -> ZDO_RegisterForZDOMsg         0      0     18
       -> ZDO_RegisterForZDOMsg         0      0     18
     GenericApp_MessageMSGCB            0      0    122
       -> strlen                        0      0     20
       -> HalUARTWrite                  0      0     20
       -> strlen                        0      0     20
       -> HalUARTWrite                  0      0     20
     GenericApp_ProcessEvent            0      0    130
       -> osal_msg_receive              0      0    224
       -> led_ctrl                      0      0    224
       -> led_ctrl                      0      0    224
       -> Start_DHT11                   0      0    224
       -> sprintf                       0      0    232
       -> strlen                        0      0    224
       -> HalUARTWrite                  0      0    224
       -> osal_start_timerEx            0      0    224
       -> osal_msg_deallocate           0      0    224
       -> osal_msg_receive              0      0    224
       -> GenericApp_ProcessZDOMsgs     0      0    224
       -> GenericApp_HandleKeys         0      0    224
       -> GenericApp_MessageMSGCB       0      0    224
       -> led_ctrl                      0      0    224
       -> led_ctrl                      0      0    224
       -> led_ctrl                      0      0    224
       -> led_ctrl                      0      0    224
       -> GenericApp_SendTheMessage     0      0    224
       -> osal_start_timerEx            0      0    224
       -> Start_DHT11                   0      0    224
       -> sprintf                       0      0    260
       -> strlen                        0      0    224
       -> HalUARTWrite                  0      0    224
       -> HalUARTWrite                  0      0    224
       -> osal_strlen                   0      0    234
       -> AF_DataRequest                0      0    242
       -> osal_start_timerEx            0      0    224
     GenericApp_ProcessZDOMsgs          0      0    122
       -> HalLedSet                     0      0     20
       -> HalLedSet                     0      0     20
       -> ZDO_ParseEPListRsp            0      0     20
       -> HalLedSet                     0      0     20
       -> osal_mem_free                 0      0     20
     GenericApp_SendTheMessage          2      0    143
       -> osal_strlen                   0      0     54
       -> AF_DataRequest                0      0     62
     InitUart                           2      0     38
       -> HalUARTOpen                   4      0     58
     SerialApp_CallBack                 2      0     51
       -> HalUARTRead                   0      0     84
       -> osal_strlen                   0      0     94
       -> AF_DataRequest                0      0    102
     exint_s1                           0      0     14
       -> osal_start_timerEx            0      0     28
     exint_s2                           0      0     14
       -> osal_start_timerEx            0      0     28


   Segment part sizes:

     Function/Label                            Bytes
     --------------                            -----
     _A_P0                                        1
     P0IFG                                        1
     P2IFG                                        1
     _A_P1                                        1
     _A_IRCON                                     1
     _A_IRCON2                                    1
     GenericApp_ClusterList                       2
     GenericApp_SimpleDesc                       12
     GenericApp_epDesc                            6
     GenericApp_TaskID                            1
     GenericApp_NwkState                          1
     GenericApp_TransID                           1
     GenericApp_DstAddr                          12
     SerialApp_CallBack                         128
     ?Subroutine2                                20
     ?Subroutine0                                 3
     ??Subroutine8_0                              5
     InitUart                                   114
     ?Subroutine3                                 8
     GenericApp_Init                            119
     GenericApp_ProcessEvent                    663
     ?Subroutine1                                 8
     ?Subroutine6                                 6
     ??Subroutine7_0                             11
     ?Subroutine5                                28
     ?Subroutine4                                 6
     beep_flag                                    1
     huoer_flag                                   1
     R_flag                                       1
     G_flag                                       1
     B_flag                                       1
     warn_flag                                    1
     relay_flag                                   1
     GenericApp_ProcessZDOMsgs                  156
     GenericApp_HandleKeys                      219
     GenericApp_MessageMSGCB                     84
     GenericApp_SendTheMessage                  111
     exint_s1                                    40
     exint_s2                                    40
     ??exint_s2??INTVEC 51                        3
     ??exint_s1??INTVEC 107                       3
     ??SerialApp_CallBack?relay                   6
     ??InitUart?relay                             6
     ??GenericApp_Init?relay                      6
     ??GenericApp_ProcessEvent?relay              6
     ??GenericApp_ProcessZDOMsgs?relay            6
     ??GenericApp_HandleKeys?relay                6
     ??GenericApp_MessageMSGCB?relay              6
     ??GenericApp_SendTheMessage?relay            6
     ?<Constant {0}>                             32
     ?<Constant "GenericApp">                    11
     ?<Constant "temperature:%d,humidi...">      29
     ?<Constant "{\"temperature\":%d,\"hu...">  107
     ?<Constant "error\r\n">                      8
     ?<Constant "Hello World">                   12

 
 1 689 bytes in segment BANKED_CODE
    48 bytes in segment BANK_RELAYS
     6 bytes in segment INTVEC
    80 bytes in segment NEAR_CODE
     6 bytes in segment SFR_AN
   213 bytes in segment XDATA_ROM_C
    28 bytes in segment XDATA_Z
 
 1 817 bytes of CODE  memory (+ 6 bytes shared)
   213 bytes of CONST memory
     0 bytes of DATA  memory (+ 6 bytes shared)
    28 bytes of XDATA memory

Errors: none
Warnings: 4
